
kernel.elf:     file format elf32-i386


Disassembly of section .text:

00010000 <_kernel_start>:
   10000:	fa                   	cli
   10001:	c7 05 04 80 0b 00 44 	movl   $0xd440d44,0xb8004
   10008:	0d 44 0d 
   1000b:	66 b8 10 00          	mov    $0x10,%ax
   1000f:	8e d8                	mov    %eax,%ds
   10011:	8e c0                	mov    %eax,%es
   10013:	8e e0                	mov    %eax,%fs
   10015:	8e e8                	mov    %eax,%gs
   10017:	8e d0                	mov    %eax,%ss
   10019:	bc 00 00 09 00       	mov    $0x90000,%esp
   1001e:	89 e5                	mov    %esp,%ebp
   10020:	bf 00 00 03 00       	mov    $0x30000,%edi
   10025:	b9 48 b7 07 00       	mov    $0x7b748,%ecx
   1002a:	29 f9                	sub    %edi,%ecx
   1002c:	c1 e9 02             	shr    $0x2,%ecx
   1002f:	31 c0                	xor    %eax,%eax
   10031:	f3 ab                	rep stos %eax,%es:(%edi)
   10033:	e8 fe 6b 01 00       	call   26c36 <kernel_main>

00010038 <_start.halt>:
   10038:	fa                   	cli
   10039:	f4                   	hlt
   1003a:	eb fc                	jmp    10038 <_start.halt>
   1003c:	66 90                	xchg   %ax,%ax
   1003e:	66 90                	xchg   %ax,%ax

00010040 <load_idt>:
   10040:	8b 44 24 04          	mov    0x4(%esp),%eax
   10044:	0f 01 18             	lidtl  (%eax)
   10047:	c3                   	ret

00010048 <isr0>:
   10048:	fa                   	cli
   10049:	6a 00                	push   $0x0
   1004b:	6a 00                	push   $0x0
   1004d:	e9 a1 01 00 00       	jmp    101f3 <isr_common_stub>

00010052 <isr1>:
   10052:	fa                   	cli
   10053:	6a 00                	push   $0x0
   10055:	6a 01                	push   $0x1
   10057:	e9 97 01 00 00       	jmp    101f3 <isr_common_stub>

0001005c <isr2>:
   1005c:	fa                   	cli
   1005d:	6a 00                	push   $0x0
   1005f:	6a 02                	push   $0x2
   10061:	e9 8d 01 00 00       	jmp    101f3 <isr_common_stub>

00010066 <isr3>:
   10066:	fa                   	cli
   10067:	6a 00                	push   $0x0
   10069:	6a 03                	push   $0x3
   1006b:	e9 83 01 00 00       	jmp    101f3 <isr_common_stub>

00010070 <isr4>:
   10070:	fa                   	cli
   10071:	6a 00                	push   $0x0
   10073:	6a 04                	push   $0x4
   10075:	e9 79 01 00 00       	jmp    101f3 <isr_common_stub>

0001007a <isr5>:
   1007a:	fa                   	cli
   1007b:	6a 00                	push   $0x0
   1007d:	6a 05                	push   $0x5
   1007f:	e9 6f 01 00 00       	jmp    101f3 <isr_common_stub>

00010084 <isr6>:
   10084:	fa                   	cli
   10085:	6a 00                	push   $0x0
   10087:	6a 06                	push   $0x6
   10089:	e9 65 01 00 00       	jmp    101f3 <isr_common_stub>

0001008e <isr7>:
   1008e:	fa                   	cli
   1008f:	6a 00                	push   $0x0
   10091:	6a 07                	push   $0x7
   10093:	e9 5b 01 00 00       	jmp    101f3 <isr_common_stub>

00010098 <isr8>:
   10098:	fa                   	cli
   10099:	6a 08                	push   $0x8
   1009b:	e9 53 01 00 00       	jmp    101f3 <isr_common_stub>

000100a0 <isr9>:
   100a0:	fa                   	cli
   100a1:	6a 00                	push   $0x0
   100a3:	6a 09                	push   $0x9
   100a5:	e9 49 01 00 00       	jmp    101f3 <isr_common_stub>

000100aa <isr10>:
   100aa:	fa                   	cli
   100ab:	6a 0a                	push   $0xa
   100ad:	e9 41 01 00 00       	jmp    101f3 <isr_common_stub>

000100b2 <isr11>:
   100b2:	fa                   	cli
   100b3:	6a 0b                	push   $0xb
   100b5:	e9 39 01 00 00       	jmp    101f3 <isr_common_stub>

000100ba <isr12>:
   100ba:	fa                   	cli
   100bb:	6a 0c                	push   $0xc
   100bd:	e9 31 01 00 00       	jmp    101f3 <isr_common_stub>

000100c2 <isr13>:
   100c2:	fa                   	cli
   100c3:	6a 0d                	push   $0xd
   100c5:	e9 29 01 00 00       	jmp    101f3 <isr_common_stub>

000100ca <isr14>:
   100ca:	fa                   	cli
   100cb:	6a 0e                	push   $0xe
   100cd:	e9 21 01 00 00       	jmp    101f3 <isr_common_stub>

000100d2 <isr15>:
   100d2:	fa                   	cli
   100d3:	6a 00                	push   $0x0
   100d5:	6a 0f                	push   $0xf
   100d7:	e9 17 01 00 00       	jmp    101f3 <isr_common_stub>

000100dc <isr16>:
   100dc:	fa                   	cli
   100dd:	6a 00                	push   $0x0
   100df:	6a 10                	push   $0x10
   100e1:	e9 0d 01 00 00       	jmp    101f3 <isr_common_stub>

000100e6 <isr17>:
   100e6:	fa                   	cli
   100e7:	6a 00                	push   $0x0
   100e9:	6a 11                	push   $0x11
   100eb:	e9 03 01 00 00       	jmp    101f3 <isr_common_stub>

000100f0 <isr18>:
   100f0:	fa                   	cli
   100f1:	6a 00                	push   $0x0
   100f3:	6a 12                	push   $0x12
   100f5:	e9 f9 00 00 00       	jmp    101f3 <isr_common_stub>

000100fa <isr19>:
   100fa:	fa                   	cli
   100fb:	6a 00                	push   $0x0
   100fd:	6a 13                	push   $0x13
   100ff:	e9 ef 00 00 00       	jmp    101f3 <isr_common_stub>

00010104 <isr20>:
   10104:	fa                   	cli
   10105:	6a 00                	push   $0x0
   10107:	6a 14                	push   $0x14
   10109:	e9 e5 00 00 00       	jmp    101f3 <isr_common_stub>

0001010e <isr21>:
   1010e:	fa                   	cli
   1010f:	6a 00                	push   $0x0
   10111:	6a 15                	push   $0x15
   10113:	e9 db 00 00 00       	jmp    101f3 <isr_common_stub>

00010118 <isr22>:
   10118:	fa                   	cli
   10119:	6a 00                	push   $0x0
   1011b:	6a 16                	push   $0x16
   1011d:	e9 d1 00 00 00       	jmp    101f3 <isr_common_stub>

00010122 <isr23>:
   10122:	fa                   	cli
   10123:	6a 00                	push   $0x0
   10125:	6a 17                	push   $0x17
   10127:	e9 c7 00 00 00       	jmp    101f3 <isr_common_stub>

0001012c <isr24>:
   1012c:	fa                   	cli
   1012d:	6a 00                	push   $0x0
   1012f:	6a 18                	push   $0x18
   10131:	e9 bd 00 00 00       	jmp    101f3 <isr_common_stub>

00010136 <isr25>:
   10136:	fa                   	cli
   10137:	6a 00                	push   $0x0
   10139:	6a 19                	push   $0x19
   1013b:	e9 b3 00 00 00       	jmp    101f3 <isr_common_stub>

00010140 <isr26>:
   10140:	fa                   	cli
   10141:	6a 00                	push   $0x0
   10143:	6a 1a                	push   $0x1a
   10145:	e9 a9 00 00 00       	jmp    101f3 <isr_common_stub>

0001014a <isr27>:
   1014a:	fa                   	cli
   1014b:	6a 00                	push   $0x0
   1014d:	6a 1b                	push   $0x1b
   1014f:	e9 9f 00 00 00       	jmp    101f3 <isr_common_stub>

00010154 <isr28>:
   10154:	fa                   	cli
   10155:	6a 00                	push   $0x0
   10157:	6a 1c                	push   $0x1c
   10159:	e9 95 00 00 00       	jmp    101f3 <isr_common_stub>

0001015e <isr29>:
   1015e:	fa                   	cli
   1015f:	6a 00                	push   $0x0
   10161:	6a 1d                	push   $0x1d
   10163:	e9 8b 00 00 00       	jmp    101f3 <isr_common_stub>

00010168 <isr30>:
   10168:	fa                   	cli
   10169:	6a 00                	push   $0x0
   1016b:	6a 1e                	push   $0x1e
   1016d:	e9 81 00 00 00       	jmp    101f3 <isr_common_stub>

00010172 <isr31>:
   10172:	fa                   	cli
   10173:	6a 00                	push   $0x0
   10175:	6a 1f                	push   $0x1f
   10177:	eb 7a                	jmp    101f3 <isr_common_stub>

00010179 <irq0>:
   10179:	fa                   	cli
   1017a:	6a 00                	push   $0x0
   1017c:	6a 20                	push   $0x20
   1017e:	eb 73                	jmp    101f3 <isr_common_stub>

00010180 <irq1>:
   10180:	fa                   	cli
   10181:	6a 00                	push   $0x0
   10183:	6a 21                	push   $0x21
   10185:	eb 6c                	jmp    101f3 <isr_common_stub>

00010187 <irq2>:
   10187:	fa                   	cli
   10188:	6a 00                	push   $0x0
   1018a:	6a 22                	push   $0x22
   1018c:	eb 65                	jmp    101f3 <isr_common_stub>

0001018e <irq3>:
   1018e:	fa                   	cli
   1018f:	6a 00                	push   $0x0
   10191:	6a 23                	push   $0x23
   10193:	eb 5e                	jmp    101f3 <isr_common_stub>

00010195 <irq4>:
   10195:	fa                   	cli
   10196:	6a 00                	push   $0x0
   10198:	6a 24                	push   $0x24
   1019a:	eb 57                	jmp    101f3 <isr_common_stub>

0001019c <irq5>:
   1019c:	fa                   	cli
   1019d:	6a 00                	push   $0x0
   1019f:	6a 25                	push   $0x25
   101a1:	eb 50                	jmp    101f3 <isr_common_stub>

000101a3 <irq6>:
   101a3:	fa                   	cli
   101a4:	6a 00                	push   $0x0
   101a6:	6a 26                	push   $0x26
   101a8:	eb 49                	jmp    101f3 <isr_common_stub>

000101aa <irq7>:
   101aa:	fa                   	cli
   101ab:	6a 00                	push   $0x0
   101ad:	6a 27                	push   $0x27
   101af:	eb 42                	jmp    101f3 <isr_common_stub>

000101b1 <irq8>:
   101b1:	fa                   	cli
   101b2:	6a 00                	push   $0x0
   101b4:	6a 28                	push   $0x28
   101b6:	eb 3b                	jmp    101f3 <isr_common_stub>

000101b8 <irq9>:
   101b8:	fa                   	cli
   101b9:	6a 00                	push   $0x0
   101bb:	6a 29                	push   $0x29
   101bd:	eb 34                	jmp    101f3 <isr_common_stub>

000101bf <irq10>:
   101bf:	fa                   	cli
   101c0:	6a 00                	push   $0x0
   101c2:	6a 2a                	push   $0x2a
   101c4:	eb 2d                	jmp    101f3 <isr_common_stub>

000101c6 <irq11>:
   101c6:	fa                   	cli
   101c7:	6a 00                	push   $0x0
   101c9:	6a 2b                	push   $0x2b
   101cb:	eb 26                	jmp    101f3 <isr_common_stub>

000101cd <irq12>:
   101cd:	fa                   	cli
   101ce:	6a 00                	push   $0x0
   101d0:	6a 2c                	push   $0x2c
   101d2:	eb 1f                	jmp    101f3 <isr_common_stub>

000101d4 <irq13>:
   101d4:	fa                   	cli
   101d5:	6a 00                	push   $0x0
   101d7:	6a 2d                	push   $0x2d
   101d9:	eb 18                	jmp    101f3 <isr_common_stub>

000101db <irq14>:
   101db:	fa                   	cli
   101dc:	6a 00                	push   $0x0
   101de:	6a 2e                	push   $0x2e
   101e0:	eb 11                	jmp    101f3 <isr_common_stub>

000101e2 <irq15>:
   101e2:	fa                   	cli
   101e3:	6a 00                	push   $0x0
   101e5:	6a 2f                	push   $0x2f
   101e7:	eb 0a                	jmp    101f3 <isr_common_stub>

000101e9 <isr128>:
   101e9:	fa                   	cli
   101ea:	6a 00                	push   $0x0
   101ec:	68 80 00 00 00       	push   $0x80
   101f1:	eb 00                	jmp    101f3 <isr_common_stub>

000101f3 <isr_common_stub>:
   101f3:	60                   	pusha
   101f4:	66 8c d8             	mov    %ds,%ax
   101f7:	50                   	push   %eax
   101f8:	66 b8 10 00          	mov    $0x10,%ax
   101fc:	8e d8                	mov    %eax,%ds
   101fe:	8e c0                	mov    %eax,%es
   10200:	8e e0                	mov    %eax,%fs
   10202:	8e e8                	mov    %eax,%gs
   10204:	54                   	push   %esp
   10205:	e8 ec 06 00 00       	call   108f6 <isr_handler>
   1020a:	83 c4 04             	add    $0x4,%esp
   1020d:	58                   	pop    %eax
   1020e:	8e d8                	mov    %eax,%ds
   10210:	8e c0                	mov    %eax,%es
   10212:	8e e0                	mov    %eax,%fs
   10214:	8e e8                	mov    %eax,%gs
   10216:	61                   	popa
   10217:	83 c4 08             	add    $0x8,%esp
   1021a:	fb                   	sti
   1021b:	cf                   	iret
   1021c:	66 90                	xchg   %ax,%ax
   1021e:	66 90                	xchg   %ax,%ax

00010220 <switch_task>:
   10220:	9c                   	pushf
   10221:	53                   	push   %ebx
   10222:	56                   	push   %esi
   10223:	57                   	push   %edi
   10224:	55                   	push   %ebp
   10225:	8b 44 24 18          	mov    0x18(%esp),%eax
   10229:	89 20                	mov    %esp,(%eax)
   1022b:	8b 64 24 1c          	mov    0x1c(%esp),%esp
   1022f:	5d                   	pop    %ebp
   10230:	5f                   	pop    %edi
   10231:	5e                   	pop    %esi
   10232:	5b                   	pop    %ebx
   10233:	9d                   	popf
   10234:	c3                   	ret
   10235:	90                   	nop

00010236 <_ZN4re3612set_idt_gateEijth>:
   10236:	55                   	push   %ebp
   10237:	89 e5                	mov    %esp,%ebp
   10239:	83 ec 08             	sub    $0x8,%esp
   1023c:	e8 66 0e 00 00       	call   110a7 <__x86.get_pc_thunk.ax>
   10241:	05 bb ee 01 00       	add    $0x1eebb,%eax
   10246:	8b 4d 10             	mov    0x10(%ebp),%ecx
   10249:	8b 55 14             	mov    0x14(%ebp),%edx
   1024c:	66 89 4d fc          	mov    %cx,-0x4(%ebp)
   10250:	88 55 f8             	mov    %dl,-0x8(%ebp)
   10253:	8b 55 0c             	mov    0xc(%ebp),%edx
   10256:	89 d1                	mov    %edx,%ecx
   10258:	8b 55 08             	mov    0x8(%ebp),%edx
   1025b:	66 89 8c d0 04 0f 00 	mov    %cx,0xf04(%eax,%edx,8)
   10262:	00 
   10263:	8b 55 08             	mov    0x8(%ebp),%edx
   10266:	0f b7 4d fc          	movzwl -0x4(%ebp),%ecx
   1026a:	66 89 8c d0 06 0f 00 	mov    %cx,0xf06(%eax,%edx,8)
   10271:	00 
   10272:	8b 55 08             	mov    0x8(%ebp),%edx
   10275:	c6 84 d0 08 0f 00 00 	movb   $0x0,0xf08(%eax,%edx,8)
   1027c:	00 
   1027d:	8b 55 08             	mov    0x8(%ebp),%edx
   10280:	0f b6 4d f8          	movzbl -0x8(%ebp),%ecx
   10284:	88 8c d0 09 0f 00 00 	mov    %cl,0xf09(%eax,%edx,8)
   1028b:	8b 55 0c             	mov    0xc(%ebp),%edx
   1028e:	c1 ea 10             	shr    $0x10,%edx
   10291:	89 d1                	mov    %edx,%ecx
   10293:	8b 55 08             	mov    0x8(%ebp),%edx
   10296:	66 89 8c d0 0a 0f 00 	mov    %cx,0xf0a(%eax,%edx,8)
   1029d:	00 
   1029e:	90                   	nop
   1029f:	c9                   	leave
   102a0:	c3                   	ret

000102a1 <_ZN4re368init_idtEv>:
   102a1:	55                   	push   %ebp
   102a2:	89 e5                	mov    %esp,%ebp
   102a4:	53                   	push   %ebx
   102a5:	83 ec 04             	sub    $0x4,%esp
   102a8:	e8 fe 0d 00 00       	call   110ab <__x86.get_pc_thunk.bx>
   102ad:	81 c3 4f ee 01 00    	add    $0x1ee4f,%ebx
   102b3:	8d 83 04 0f 00 00    	lea    0xf04(%ebx),%eax
   102b9:	89 83 06 17 00 00    	mov    %eax,0x1706(%ebx)
   102bf:	66 c7 83 04 17 00 00 	movw   $0x7ff,0x1704(%ebx)
   102c6:	ff 07 
   102c8:	c7 c0 48 00 01 00    	mov    $0x10048,%eax
   102ce:	68 8e 00 00 00       	push   $0x8e
   102d3:	6a 08                	push   $0x8
   102d5:	50                   	push   %eax
   102d6:	6a 00                	push   $0x0
   102d8:	e8 59 ff ff ff       	call   10236 <_ZN4re3612set_idt_gateEijth>
   102dd:	83 c4 10             	add    $0x10,%esp
   102e0:	c7 c0 52 00 01 00    	mov    $0x10052,%eax
   102e6:	68 8e 00 00 00       	push   $0x8e
   102eb:	6a 08                	push   $0x8
   102ed:	50                   	push   %eax
   102ee:	6a 01                	push   $0x1
   102f0:	e8 41 ff ff ff       	call   10236 <_ZN4re3612set_idt_gateEijth>
   102f5:	83 c4 10             	add    $0x10,%esp
   102f8:	c7 c0 5c 00 01 00    	mov    $0x1005c,%eax
   102fe:	68 8e 00 00 00       	push   $0x8e
   10303:	6a 08                	push   $0x8
   10305:	50                   	push   %eax
   10306:	6a 02                	push   $0x2
   10308:	e8 29 ff ff ff       	call   10236 <_ZN4re3612set_idt_gateEijth>
   1030d:	83 c4 10             	add    $0x10,%esp
   10310:	c7 c0 66 00 01 00    	mov    $0x10066,%eax
   10316:	68 8e 00 00 00       	push   $0x8e
   1031b:	6a 08                	push   $0x8
   1031d:	50                   	push   %eax
   1031e:	6a 03                	push   $0x3
   10320:	e8 11 ff ff ff       	call   10236 <_ZN4re3612set_idt_gateEijth>
   10325:	83 c4 10             	add    $0x10,%esp
   10328:	c7 c0 70 00 01 00    	mov    $0x10070,%eax
   1032e:	68 8e 00 00 00       	push   $0x8e
   10333:	6a 08                	push   $0x8
   10335:	50                   	push   %eax
   10336:	6a 04                	push   $0x4
   10338:	e8 f9 fe ff ff       	call   10236 <_ZN4re3612set_idt_gateEijth>
   1033d:	83 c4 10             	add    $0x10,%esp
   10340:	c7 c0 7a 00 01 00    	mov    $0x1007a,%eax
   10346:	68 8e 00 00 00       	push   $0x8e
   1034b:	6a 08                	push   $0x8
   1034d:	50                   	push   %eax
   1034e:	6a 05                	push   $0x5
   10350:	e8 e1 fe ff ff       	call   10236 <_ZN4re3612set_idt_gateEijth>
   10355:	83 c4 10             	add    $0x10,%esp
   10358:	c7 c0 84 00 01 00    	mov    $0x10084,%eax
   1035e:	68 8e 00 00 00       	push   $0x8e
   10363:	6a 08                	push   $0x8
   10365:	50                   	push   %eax
   10366:	6a 06                	push   $0x6
   10368:	e8 c9 fe ff ff       	call   10236 <_ZN4re3612set_idt_gateEijth>
   1036d:	83 c4 10             	add    $0x10,%esp
   10370:	c7 c0 8e 00 01 00    	mov    $0x1008e,%eax
   10376:	68 8e 00 00 00       	push   $0x8e
   1037b:	6a 08                	push   $0x8
   1037d:	50                   	push   %eax
   1037e:	6a 07                	push   $0x7
   10380:	e8 b1 fe ff ff       	call   10236 <_ZN4re3612set_idt_gateEijth>
   10385:	83 c4 10             	add    $0x10,%esp
   10388:	c7 c0 98 00 01 00    	mov    $0x10098,%eax
   1038e:	68 8e 00 00 00       	push   $0x8e
   10393:	6a 08                	push   $0x8
   10395:	50                   	push   %eax
   10396:	6a 08                	push   $0x8
   10398:	e8 99 fe ff ff       	call   10236 <_ZN4re3612set_idt_gateEijth>
   1039d:	83 c4 10             	add    $0x10,%esp
   103a0:	c7 c0 a0 00 01 00    	mov    $0x100a0,%eax
   103a6:	68 8e 00 00 00       	push   $0x8e
   103ab:	6a 08                	push   $0x8
   103ad:	50                   	push   %eax
   103ae:	6a 09                	push   $0x9
   103b0:	e8 81 fe ff ff       	call   10236 <_ZN4re3612set_idt_gateEijth>
   103b5:	83 c4 10             	add    $0x10,%esp
   103b8:	c7 c0 aa 00 01 00    	mov    $0x100aa,%eax
   103be:	68 8e 00 00 00       	push   $0x8e
   103c3:	6a 08                	push   $0x8
   103c5:	50                   	push   %eax
   103c6:	6a 0a                	push   $0xa
   103c8:	e8 69 fe ff ff       	call   10236 <_ZN4re3612set_idt_gateEijth>
   103cd:	83 c4 10             	add    $0x10,%esp
   103d0:	c7 c0 b2 00 01 00    	mov    $0x100b2,%eax
   103d6:	68 8e 00 00 00       	push   $0x8e
   103db:	6a 08                	push   $0x8
   103dd:	50                   	push   %eax
   103de:	6a 0b                	push   $0xb
   103e0:	e8 51 fe ff ff       	call   10236 <_ZN4re3612set_idt_gateEijth>
   103e5:	83 c4 10             	add    $0x10,%esp
   103e8:	c7 c0 ba 00 01 00    	mov    $0x100ba,%eax
   103ee:	68 8e 00 00 00       	push   $0x8e
   103f3:	6a 08                	push   $0x8
   103f5:	50                   	push   %eax
   103f6:	6a 0c                	push   $0xc
   103f8:	e8 39 fe ff ff       	call   10236 <_ZN4re3612set_idt_gateEijth>
   103fd:	83 c4 10             	add    $0x10,%esp
   10400:	c7 c0 c2 00 01 00    	mov    $0x100c2,%eax
   10406:	68 8e 00 00 00       	push   $0x8e
   1040b:	6a 08                	push   $0x8
   1040d:	50                   	push   %eax
   1040e:	6a 0d                	push   $0xd
   10410:	e8 21 fe ff ff       	call   10236 <_ZN4re3612set_idt_gateEijth>
   10415:	83 c4 10             	add    $0x10,%esp
   10418:	c7 c0 ca 00 01 00    	mov    $0x100ca,%eax
   1041e:	68 8e 00 00 00       	push   $0x8e
   10423:	6a 08                	push   $0x8
   10425:	50                   	push   %eax
   10426:	6a 0e                	push   $0xe
   10428:	e8 09 fe ff ff       	call   10236 <_ZN4re3612set_idt_gateEijth>
   1042d:	83 c4 10             	add    $0x10,%esp
   10430:	c7 c0 d2 00 01 00    	mov    $0x100d2,%eax
   10436:	68 8e 00 00 00       	push   $0x8e
   1043b:	6a 08                	push   $0x8
   1043d:	50                   	push   %eax
   1043e:	6a 0f                	push   $0xf
   10440:	e8 f1 fd ff ff       	call   10236 <_ZN4re3612set_idt_gateEijth>
   10445:	83 c4 10             	add    $0x10,%esp
   10448:	c7 c0 dc 00 01 00    	mov    $0x100dc,%eax
   1044e:	68 8e 00 00 00       	push   $0x8e
   10453:	6a 08                	push   $0x8
   10455:	50                   	push   %eax
   10456:	6a 10                	push   $0x10
   10458:	e8 d9 fd ff ff       	call   10236 <_ZN4re3612set_idt_gateEijth>
   1045d:	83 c4 10             	add    $0x10,%esp
   10460:	c7 c0 e6 00 01 00    	mov    $0x100e6,%eax
   10466:	68 8e 00 00 00       	push   $0x8e
   1046b:	6a 08                	push   $0x8
   1046d:	50                   	push   %eax
   1046e:	6a 11                	push   $0x11
   10470:	e8 c1 fd ff ff       	call   10236 <_ZN4re3612set_idt_gateEijth>
   10475:	83 c4 10             	add    $0x10,%esp
   10478:	c7 c0 f0 00 01 00    	mov    $0x100f0,%eax
   1047e:	68 8e 00 00 00       	push   $0x8e
   10483:	6a 08                	push   $0x8
   10485:	50                   	push   %eax
   10486:	6a 12                	push   $0x12
   10488:	e8 a9 fd ff ff       	call   10236 <_ZN4re3612set_idt_gateEijth>
   1048d:	83 c4 10             	add    $0x10,%esp
   10490:	c7 c0 fa 00 01 00    	mov    $0x100fa,%eax
   10496:	68 8e 00 00 00       	push   $0x8e
   1049b:	6a 08                	push   $0x8
   1049d:	50                   	push   %eax
   1049e:	6a 13                	push   $0x13
   104a0:	e8 91 fd ff ff       	call   10236 <_ZN4re3612set_idt_gateEijth>
   104a5:	83 c4 10             	add    $0x10,%esp
   104a8:	c7 c0 04 01 01 00    	mov    $0x10104,%eax
   104ae:	68 8e 00 00 00       	push   $0x8e
   104b3:	6a 08                	push   $0x8
   104b5:	50                   	push   %eax
   104b6:	6a 14                	push   $0x14
   104b8:	e8 79 fd ff ff       	call   10236 <_ZN4re3612set_idt_gateEijth>
   104bd:	83 c4 10             	add    $0x10,%esp
   104c0:	c7 c0 0e 01 01 00    	mov    $0x1010e,%eax
   104c6:	68 8e 00 00 00       	push   $0x8e
   104cb:	6a 08                	push   $0x8
   104cd:	50                   	push   %eax
   104ce:	6a 15                	push   $0x15
   104d0:	e8 61 fd ff ff       	call   10236 <_ZN4re3612set_idt_gateEijth>
   104d5:	83 c4 10             	add    $0x10,%esp
   104d8:	c7 c0 18 01 01 00    	mov    $0x10118,%eax
   104de:	68 8e 00 00 00       	push   $0x8e
   104e3:	6a 08                	push   $0x8
   104e5:	50                   	push   %eax
   104e6:	6a 16                	push   $0x16
   104e8:	e8 49 fd ff ff       	call   10236 <_ZN4re3612set_idt_gateEijth>
   104ed:	83 c4 10             	add    $0x10,%esp
   104f0:	c7 c0 22 01 01 00    	mov    $0x10122,%eax
   104f6:	68 8e 00 00 00       	push   $0x8e
   104fb:	6a 08                	push   $0x8
   104fd:	50                   	push   %eax
   104fe:	6a 17                	push   $0x17
   10500:	e8 31 fd ff ff       	call   10236 <_ZN4re3612set_idt_gateEijth>
   10505:	83 c4 10             	add    $0x10,%esp
   10508:	c7 c0 2c 01 01 00    	mov    $0x1012c,%eax
   1050e:	68 8e 00 00 00       	push   $0x8e
   10513:	6a 08                	push   $0x8
   10515:	50                   	push   %eax
   10516:	6a 18                	push   $0x18
   10518:	e8 19 fd ff ff       	call   10236 <_ZN4re3612set_idt_gateEijth>
   1051d:	83 c4 10             	add    $0x10,%esp
   10520:	c7 c0 36 01 01 00    	mov    $0x10136,%eax
   10526:	68 8e 00 00 00       	push   $0x8e
   1052b:	6a 08                	push   $0x8
   1052d:	50                   	push   %eax
   1052e:	6a 19                	push   $0x19
   10530:	e8 01 fd ff ff       	call   10236 <_ZN4re3612set_idt_gateEijth>
   10535:	83 c4 10             	add    $0x10,%esp
   10538:	c7 c0 40 01 01 00    	mov    $0x10140,%eax
   1053e:	68 8e 00 00 00       	push   $0x8e
   10543:	6a 08                	push   $0x8
   10545:	50                   	push   %eax
   10546:	6a 1a                	push   $0x1a
   10548:	e8 e9 fc ff ff       	call   10236 <_ZN4re3612set_idt_gateEijth>
   1054d:	83 c4 10             	add    $0x10,%esp
   10550:	c7 c0 4a 01 01 00    	mov    $0x1014a,%eax
   10556:	68 8e 00 00 00       	push   $0x8e
   1055b:	6a 08                	push   $0x8
   1055d:	50                   	push   %eax
   1055e:	6a 1b                	push   $0x1b
   10560:	e8 d1 fc ff ff       	call   10236 <_ZN4re3612set_idt_gateEijth>
   10565:	83 c4 10             	add    $0x10,%esp
   10568:	c7 c0 54 01 01 00    	mov    $0x10154,%eax
   1056e:	68 8e 00 00 00       	push   $0x8e
   10573:	6a 08                	push   $0x8
   10575:	50                   	push   %eax
   10576:	6a 1c                	push   $0x1c
   10578:	e8 b9 fc ff ff       	call   10236 <_ZN4re3612set_idt_gateEijth>
   1057d:	83 c4 10             	add    $0x10,%esp
   10580:	c7 c0 5e 01 01 00    	mov    $0x1015e,%eax
   10586:	68 8e 00 00 00       	push   $0x8e
   1058b:	6a 08                	push   $0x8
   1058d:	50                   	push   %eax
   1058e:	6a 1d                	push   $0x1d
   10590:	e8 a1 fc ff ff       	call   10236 <_ZN4re3612set_idt_gateEijth>
   10595:	83 c4 10             	add    $0x10,%esp
   10598:	c7 c0 68 01 01 00    	mov    $0x10168,%eax
   1059e:	68 8e 00 00 00       	push   $0x8e
   105a3:	6a 08                	push   $0x8
   105a5:	50                   	push   %eax
   105a6:	6a 1e                	push   $0x1e
   105a8:	e8 89 fc ff ff       	call   10236 <_ZN4re3612set_idt_gateEijth>
   105ad:	83 c4 10             	add    $0x10,%esp
   105b0:	c7 c0 72 01 01 00    	mov    $0x10172,%eax
   105b6:	68 8e 00 00 00       	push   $0x8e
   105bb:	6a 08                	push   $0x8
   105bd:	50                   	push   %eax
   105be:	6a 1f                	push   $0x1f
   105c0:	e8 71 fc ff ff       	call   10236 <_ZN4re3612set_idt_gateEijth>
   105c5:	83 c4 10             	add    $0x10,%esp
   105c8:	c7 c0 79 01 01 00    	mov    $0x10179,%eax
   105ce:	68 8e 00 00 00       	push   $0x8e
   105d3:	6a 08                	push   $0x8
   105d5:	50                   	push   %eax
   105d6:	6a 20                	push   $0x20
   105d8:	e8 59 fc ff ff       	call   10236 <_ZN4re3612set_idt_gateEijth>
   105dd:	83 c4 10             	add    $0x10,%esp
   105e0:	c7 c0 80 01 01 00    	mov    $0x10180,%eax
   105e6:	68 8e 00 00 00       	push   $0x8e
   105eb:	6a 08                	push   $0x8
   105ed:	50                   	push   %eax
   105ee:	6a 21                	push   $0x21
   105f0:	e8 41 fc ff ff       	call   10236 <_ZN4re3612set_idt_gateEijth>
   105f5:	83 c4 10             	add    $0x10,%esp
   105f8:	c7 c0 87 01 01 00    	mov    $0x10187,%eax
   105fe:	68 8e 00 00 00       	push   $0x8e
   10603:	6a 08                	push   $0x8
   10605:	50                   	push   %eax
   10606:	6a 22                	push   $0x22
   10608:	e8 29 fc ff ff       	call   10236 <_ZN4re3612set_idt_gateEijth>
   1060d:	83 c4 10             	add    $0x10,%esp
   10610:	c7 c0 8e 01 01 00    	mov    $0x1018e,%eax
   10616:	68 8e 00 00 00       	push   $0x8e
   1061b:	6a 08                	push   $0x8
   1061d:	50                   	push   %eax
   1061e:	6a 23                	push   $0x23
   10620:	e8 11 fc ff ff       	call   10236 <_ZN4re3612set_idt_gateEijth>
   10625:	83 c4 10             	add    $0x10,%esp
   10628:	c7 c0 95 01 01 00    	mov    $0x10195,%eax
   1062e:	68 8e 00 00 00       	push   $0x8e
   10633:	6a 08                	push   $0x8
   10635:	50                   	push   %eax
   10636:	6a 24                	push   $0x24
   10638:	e8 f9 fb ff ff       	call   10236 <_ZN4re3612set_idt_gateEijth>
   1063d:	83 c4 10             	add    $0x10,%esp
   10640:	c7 c0 9c 01 01 00    	mov    $0x1019c,%eax
   10646:	68 8e 00 00 00       	push   $0x8e
   1064b:	6a 08                	push   $0x8
   1064d:	50                   	push   %eax
   1064e:	6a 25                	push   $0x25
   10650:	e8 e1 fb ff ff       	call   10236 <_ZN4re3612set_idt_gateEijth>
   10655:	83 c4 10             	add    $0x10,%esp
   10658:	c7 c0 a3 01 01 00    	mov    $0x101a3,%eax
   1065e:	68 8e 00 00 00       	push   $0x8e
   10663:	6a 08                	push   $0x8
   10665:	50                   	push   %eax
   10666:	6a 26                	push   $0x26
   10668:	e8 c9 fb ff ff       	call   10236 <_ZN4re3612set_idt_gateEijth>
   1066d:	83 c4 10             	add    $0x10,%esp
   10670:	c7 c0 aa 01 01 00    	mov    $0x101aa,%eax
   10676:	68 8e 00 00 00       	push   $0x8e
   1067b:	6a 08                	push   $0x8
   1067d:	50                   	push   %eax
   1067e:	6a 27                	push   $0x27
   10680:	e8 b1 fb ff ff       	call   10236 <_ZN4re3612set_idt_gateEijth>
   10685:	83 c4 10             	add    $0x10,%esp
   10688:	c7 c0 b1 01 01 00    	mov    $0x101b1,%eax
   1068e:	68 8e 00 00 00       	push   $0x8e
   10693:	6a 08                	push   $0x8
   10695:	50                   	push   %eax
   10696:	6a 28                	push   $0x28
   10698:	e8 99 fb ff ff       	call   10236 <_ZN4re3612set_idt_gateEijth>
   1069d:	83 c4 10             	add    $0x10,%esp
   106a0:	c7 c0 b8 01 01 00    	mov    $0x101b8,%eax
   106a6:	68 8e 00 00 00       	push   $0x8e
   106ab:	6a 08                	push   $0x8
   106ad:	50                   	push   %eax
   106ae:	6a 29                	push   $0x29
   106b0:	e8 81 fb ff ff       	call   10236 <_ZN4re3612set_idt_gateEijth>
   106b5:	83 c4 10             	add    $0x10,%esp
   106b8:	c7 c0 bf 01 01 00    	mov    $0x101bf,%eax
   106be:	68 8e 00 00 00       	push   $0x8e
   106c3:	6a 08                	push   $0x8
   106c5:	50                   	push   %eax
   106c6:	6a 2a                	push   $0x2a
   106c8:	e8 69 fb ff ff       	call   10236 <_ZN4re3612set_idt_gateEijth>
   106cd:	83 c4 10             	add    $0x10,%esp
   106d0:	c7 c0 c6 01 01 00    	mov    $0x101c6,%eax
   106d6:	68 8e 00 00 00       	push   $0x8e
   106db:	6a 08                	push   $0x8
   106dd:	50                   	push   %eax
   106de:	6a 2b                	push   $0x2b
   106e0:	e8 51 fb ff ff       	call   10236 <_ZN4re3612set_idt_gateEijth>
   106e5:	83 c4 10             	add    $0x10,%esp
   106e8:	c7 c0 cd 01 01 00    	mov    $0x101cd,%eax
   106ee:	68 8e 00 00 00       	push   $0x8e
   106f3:	6a 08                	push   $0x8
   106f5:	50                   	push   %eax
   106f6:	6a 2c                	push   $0x2c
   106f8:	e8 39 fb ff ff       	call   10236 <_ZN4re3612set_idt_gateEijth>
   106fd:	83 c4 10             	add    $0x10,%esp
   10700:	c7 c0 d4 01 01 00    	mov    $0x101d4,%eax
   10706:	68 8e 00 00 00       	push   $0x8e
   1070b:	6a 08                	push   $0x8
   1070d:	50                   	push   %eax
   1070e:	6a 2d                	push   $0x2d
   10710:	e8 21 fb ff ff       	call   10236 <_ZN4re3612set_idt_gateEijth>
   10715:	83 c4 10             	add    $0x10,%esp
   10718:	c7 c0 db 01 01 00    	mov    $0x101db,%eax
   1071e:	68 8e 00 00 00       	push   $0x8e
   10723:	6a 08                	push   $0x8
   10725:	50                   	push   %eax
   10726:	6a 2e                	push   $0x2e
   10728:	e8 09 fb ff ff       	call   10236 <_ZN4re3612set_idt_gateEijth>
   1072d:	83 c4 10             	add    $0x10,%esp
   10730:	c7 c0 e2 01 01 00    	mov    $0x101e2,%eax
   10736:	68 8e 00 00 00       	push   $0x8e
   1073b:	6a 08                	push   $0x8
   1073d:	50                   	push   %eax
   1073e:	6a 2f                	push   $0x2f
   10740:	e8 f1 fa ff ff       	call   10236 <_ZN4re3612set_idt_gateEijth>
   10745:	83 c4 10             	add    $0x10,%esp
   10748:	8d 83 04 17 00 00    	lea    0x1704(%ebx),%eax
   1074e:	83 ec 0c             	sub    $0xc,%esp
   10751:	50                   	push   %eax
   10752:	e8 e9 f8 ff ff       	call   10040 <load_idt>
   10757:	83 c4 10             	add    $0x10,%esp
   1075a:	90                   	nop
   1075b:	8b 5d fc             	mov    -0x4(%ebp),%ebx
   1075e:	c9                   	leave
   1075f:	c3                   	ret

00010760 <_ZZ11isr_handlerENKUliiPKcE_clEiiS0_>:
   10760:	55                   	push   %ebp
   10761:	89 e5                	mov    %esp,%ebp
   10763:	53                   	push   %ebx
   10764:	83 ec 24             	sub    $0x24,%esp
   10767:	e8 3f 09 00 00       	call   110ab <__x86.get_pc_thunk.bx>
   1076c:	81 c3 90 e9 01 00    	add    $0x1e990,%ebx
   10772:	8b 45 08             	mov    0x8(%ebp),%eax
   10775:	8b 00                	mov    (%eax),%eax
   10777:	0f b6 00             	movzbl (%eax),%eax
   1077a:	84 c0                	test   %al,%al
   1077c:	74 52                	je     107d0 <_ZZ11isr_handlerENKUliiPKcE_clEiiS0_+0x70>
   1077e:	8b 45 0c             	mov    0xc(%ebp),%eax
   10781:	c1 e0 03             	shl    $0x3,%eax
   10784:	89 45 f4             	mov    %eax,-0xc(%ebp)
   10787:	8b 45 10             	mov    0x10(%ebp),%eax
   1078a:	c1 e0 03             	shl    $0x3,%eax
   1078d:	89 45 e4             	mov    %eax,-0x1c(%ebp)
   10790:	eb 2f                	jmp    107c1 <_ZZ11isr_handlerENKUliiPKcE_clEiiS0_+0x61>
   10792:	8b 45 14             	mov    0x14(%ebp),%eax
   10795:	0f b6 00             	movzbl (%eax),%eax
   10798:	0f be c8             	movsbl %al,%ecx
   1079b:	8b 55 e4             	mov    -0x1c(%ebp),%edx
   1079e:	8b 45 f4             	mov    -0xc(%ebp),%eax
   107a1:	83 ec 0c             	sub    $0xc,%esp
   107a4:	68 00 00 aa 00       	push   $0xaa0000
   107a9:	68 ff ff ff 00       	push   $0xffffff
   107ae:	51                   	push   %ecx
   107af:	52                   	push   %edx
   107b0:	50                   	push   %eax
   107b1:	e8 32 07 01 00       	call   20ee8 <_ZN4re369BgaDriver9draw_charEjjcjj>
   107b6:	83 c4 20             	add    $0x20,%esp
   107b9:	83 45 f4 08          	addl   $0x8,-0xc(%ebp)
   107bd:	83 45 14 01          	addl   $0x1,0x14(%ebp)
   107c1:	8b 45 14             	mov    0x14(%ebp),%eax
   107c4:	0f b6 00             	movzbl (%eax),%eax
   107c7:	84 c0                	test   %al,%al
   107c9:	75 c7                	jne    10792 <_ZZ11isr_handlerENKUliiPKcE_clEiiS0_+0x32>
   107cb:	e9 a4 00 00 00       	jmp    10874 <_ZZ11isr_handlerENKUliiPKcE_clEiiS0_+0x114>
   107d0:	8b 45 08             	mov    0x8(%ebp),%eax
   107d3:	8b 40 04             	mov    0x4(%eax),%eax
   107d6:	0f b6 00             	movzbl (%eax),%eax
   107d9:	84 c0                	test   %al,%al
   107db:	74 26                	je     10803 <_ZZ11isr_handlerENKUliiPKcE_clEiiS0_+0xa3>
   107dd:	8b 45 10             	mov    0x10(%ebp),%eax
   107e0:	8d 14 c5 00 00 00 00 	lea    0x0(,%eax,8),%edx
   107e7:	8b 45 0c             	mov    0xc(%ebp),%eax
   107ea:	c1 e0 03             	shl    $0x3,%eax
   107ed:	83 ec 0c             	sub    $0xc,%esp
   107f0:	6a 04                	push   $0x4
   107f2:	6a 0f                	push   $0xf
   107f4:	ff 75 14             	push   0x14(%ebp)
   107f7:	52                   	push   %edx
   107f8:	50                   	push   %eax
   107f9:	e8 84 59 01 00       	call   26182 <_ZN4re363VGA11draw_stringEiiPKchh>
   107fe:	83 c4 20             	add    $0x20,%esp
   10801:	eb 71                	jmp    10874 <_ZZ11isr_handlerENKUliiPKcE_clEiiS0_+0x114>
   10803:	c7 45 e8 00 80 0b 00 	movl   $0xb8000,-0x18(%ebp)
   1080a:	8b 55 10             	mov    0x10(%ebp),%edx
   1080d:	89 d0                	mov    %edx,%eax
   1080f:	c1 e0 02             	shl    $0x2,%eax
   10812:	01 d0                	add    %edx,%eax
   10814:	c1 e0 04             	shl    $0x4,%eax
   10817:	89 c2                	mov    %eax,%edx
   10819:	8b 45 0c             	mov    0xc(%ebp),%eax
   1081c:	01 d0                	add    %edx,%eax
   1081e:	89 45 f0             	mov    %eax,-0x10(%ebp)
   10821:	c7 45 ec 00 00 00 00 	movl   $0x0,-0x14(%ebp)
   10828:	eb 32                	jmp    1085c <_ZZ11isr_handlerENKUliiPKcE_clEiiS0_+0xfc>
   1082a:	81 7d f0 cf 07 00 00 	cmpl   $0x7cf,-0x10(%ebp)
   10831:	7f 40                	jg     10873 <_ZZ11isr_handlerENKUliiPKcE_clEiiS0_+0x113>
   10833:	8b 55 ec             	mov    -0x14(%ebp),%edx
   10836:	8b 45 14             	mov    0x14(%ebp),%eax
   10839:	01 d0                	add    %edx,%eax
   1083b:	0f b6 00             	movzbl (%eax),%eax
   1083e:	66 98                	cbtw
   10840:	80 cc 4f             	or     $0x4f,%ah
   10843:	89 c1                	mov    %eax,%ecx
   10845:	8b 5d e8             	mov    -0x18(%ebp),%ebx
   10848:	8b 45 f0             	mov    -0x10(%ebp),%eax
   1084b:	8d 50 01             	lea    0x1(%eax),%edx
   1084e:	89 55 f0             	mov    %edx,-0x10(%ebp)
   10851:	01 c0                	add    %eax,%eax
   10853:	01 d8                	add    %ebx,%eax
   10855:	66 89 08             	mov    %cx,(%eax)
   10858:	83 45 ec 01          	addl   $0x1,-0x14(%ebp)
   1085c:	8b 55 ec             	mov    -0x14(%ebp),%edx
   1085f:	8b 45 14             	mov    0x14(%ebp),%eax
   10862:	01 d0                	add    %edx,%eax
   10864:	0f b6 00             	movzbl (%eax),%eax
   10867:	84 c0                	test   %al,%al
   10869:	74 09                	je     10874 <_ZZ11isr_handlerENKUliiPKcE_clEiiS0_+0x114>
   1086b:	83 7d ec 4f          	cmpl   $0x4f,-0x14(%ebp)
   1086f:	7e b9                	jle    1082a <_ZZ11isr_handlerENKUliiPKcE_clEiiS0_+0xca>
   10871:	eb 01                	jmp    10874 <_ZZ11isr_handlerENKUliiPKcE_clEiiS0_+0x114>
   10873:	90                   	nop
   10874:	90                   	nop
   10875:	8b 5d fc             	mov    -0x4(%ebp),%ebx
   10878:	c9                   	leave
   10879:	c3                   	ret

0001087a <_ZZ11isr_handlerENKUliijE_clEiij>:
   1087a:	55                   	push   %ebp
   1087b:	89 e5                	mov    %esp,%ebp
   1087d:	83 ec 18             	sub    $0x18,%esp
   10880:	e8 22 08 00 00       	call   110a7 <__x86.get_pc_thunk.ax>
   10885:	05 77 e8 01 00       	add    $0x1e877,%eax
   1088a:	c6 45 e8 30          	movb   $0x30,-0x18(%ebp)
   1088e:	c6 45 e9 78          	movb   $0x78,-0x17(%ebp)
   10892:	c7 45 f4 00 00 00 00 	movl   $0x0,-0xc(%ebp)
   10899:	eb 35                	jmp    108d0 <_ZZ11isr_handlerENKUliijE_clEiij+0x56>
   1089b:	b8 07 00 00 00       	mov    $0x7,%eax
   108a0:	2b 45 f4             	sub    -0xc(%ebp),%eax
   108a3:	c1 e0 02             	shl    $0x2,%eax
   108a6:	8b 55 14             	mov    0x14(%ebp),%edx
   108a9:	89 c1                	mov    %eax,%ecx
   108ab:	d3 ea                	shr    %cl,%edx
   108ad:	89 d0                	mov    %edx,%eax
   108af:	83 e0 0f             	and    $0xf,%eax
   108b2:	88 45 f3             	mov    %al,-0xd(%ebp)
   108b5:	8b 45 08             	mov    0x8(%ebp),%eax
   108b8:	8b 10                	mov    (%eax),%edx
   108ba:	0f b6 45 f3          	movzbl -0xd(%ebp),%eax
   108be:	8b 4d f4             	mov    -0xc(%ebp),%ecx
   108c1:	83 c1 02             	add    $0x2,%ecx
   108c4:	0f b6 04 02          	movzbl (%edx,%eax,1),%eax
   108c8:	88 44 0d e8          	mov    %al,-0x18(%ebp,%ecx,1)
   108cc:	83 45 f4 01          	addl   $0x1,-0xc(%ebp)
   108d0:	83 7d f4 07          	cmpl   $0x7,-0xc(%ebp)
   108d4:	7e c5                	jle    1089b <_ZZ11isr_handlerENKUliijE_clEiij+0x21>
   108d6:	c6 45 f2 00          	movb   $0x0,-0xe(%ebp)
   108da:	8b 45 08             	mov    0x8(%ebp),%eax
   108dd:	8b 40 04             	mov    0x4(%eax),%eax
   108e0:	8d 55 e8             	lea    -0x18(%ebp),%edx
   108e3:	52                   	push   %edx
   108e4:	ff 75 10             	push   0x10(%ebp)
   108e7:	ff 75 0c             	push   0xc(%ebp)
   108ea:	50                   	push   %eax
   108eb:	e8 70 fe ff ff       	call   10760 <_ZZ11isr_handlerENKUliiPKcE_clEiiS0_>
   108f0:	83 c4 10             	add    $0x10,%esp
   108f3:	90                   	nop
   108f4:	c9                   	leave
   108f5:	c3                   	ret

000108f6 <isr_handler>:
   108f6:	55                   	push   %ebp
   108f7:	89 e5                	mov    %esp,%ebp
   108f9:	57                   	push   %edi
   108fa:	56                   	push   %esi
   108fb:	53                   	push   %ebx
   108fc:	81 ec fc 00 00 00    	sub    $0xfc,%esp
   10902:	e8 a4 07 00 00       	call   110ab <__x86.get_pc_thunk.bx>
   10907:	81 c3 f5 e7 01 00    	add    $0x1e7f5,%ebx
   1090d:	8b 45 08             	mov    0x8(%ebp),%eax
   10910:	8b 40 24             	mov    0x24(%eax),%eax
   10913:	83 f8 1f             	cmp    $0x1f,%eax
   10916:	0f 86 86 00 00 00    	jbe    109a2 <isr_handler+0xac>
   1091c:	8b 45 08             	mov    0x8(%ebp),%eax
   1091f:	8b 40 24             	mov    0x24(%eax),%eax
   10922:	83 f8 2f             	cmp    $0x2f,%eax
   10925:	77 7b                	ja     109a2 <isr_handler+0xac>
   10927:	8b 45 08             	mov    0x8(%ebp),%eax
   1092a:	8b 40 24             	mov    0x24(%eax),%eax
   1092d:	83 f8 20             	cmp    $0x20,%eax
   10930:	75 1c                	jne    1094e <isr_handler+0x58>
   10932:	e8 a3 30 00 00       	call   139da <_ZN4re365Timer4tickEv>
   10937:	83 ec 0c             	sub    $0xc,%esp
   1093a:	6a 00                	push   $0x0
   1093c:	e8 dd 07 00 00       	call   1111e <_ZN4re3612pic_send_eoiEh>
   10941:	83 c4 10             	add    $0x10,%esp
   10944:	e8 cb 32 00 00       	call   13c14 <_ZN4re3613TaskScheduler8scheduleEv>
   10949:	e9 39 07 00 00       	jmp    11087 <isr_handler+0x791>
   1094e:	8b 45 08             	mov    0x8(%ebp),%eax
   10951:	8b 40 24             	mov    0x24(%eax),%eax
   10954:	83 f8 21             	cmp    $0x21,%eax
   10957:	75 05                	jne    1095e <isr_handler+0x68>
   10959:	e8 a6 23 00 00       	call   12d04 <_ZN4re3614KeyboardDriver16handle_interruptEv>
   1095e:	8b 45 08             	mov    0x8(%ebp),%eax
   10961:	8b 40 24             	mov    0x24(%eax),%eax
   10964:	83 f8 2c             	cmp    $0x2c,%eax
   10967:	75 05                	jne    1096e <isr_handler+0x78>
   10969:	e8 26 fe 00 00       	call   20794 <_ZN4re3611MouseDriver16handle_interruptEv>
   1096e:	8b 45 08             	mov    0x8(%ebp),%eax
   10971:	8b 40 24             	mov    0x24(%eax),%eax
   10974:	83 e8 20             	sub    $0x20,%eax
   10977:	83 ec 08             	sub    $0x8,%esp
   1097a:	6a 01                	push   $0x1
   1097c:	50                   	push   %eax
   1097d:	e8 b6 3f 00 00       	call   14938 <_ZN4re3611EventSystem4pushEij>
   10982:	83 c4 10             	add    $0x10,%esp
   10985:	8b 45 08             	mov    0x8(%ebp),%eax
   10988:	8b 40 24             	mov    0x24(%eax),%eax
   1098b:	83 e8 20             	sub    $0x20,%eax
   1098e:	0f b6 c0             	movzbl %al,%eax
   10991:	83 ec 0c             	sub    $0xc,%esp
   10994:	50                   	push   %eax
   10995:	e8 84 07 00 00       	call   1111e <_ZN4re3612pic_send_eoiEh>
   1099a:	83 c4 10             	add    $0x10,%esp
   1099d:	e9 e5 06 00 00       	jmp    11087 <isr_handler+0x791>
   109a2:	8b 45 08             	mov    0x8(%ebp),%eax
   109a5:	8b 40 24             	mov    0x24(%eax),%eax
   109a8:	83 f8 0e             	cmp    $0xe,%eax
   109ab:	0f 85 a0 00 00 00    	jne    10a51 <isr_handler+0x15b>
   109b1:	0f 20 d0             	mov    %cr2,%eax
   109b4:	89 45 e0             	mov    %eax,-0x20(%ebp)
   109b7:	8b 45 08             	mov    0x8(%ebp),%eax
   109ba:	8b 40 28             	mov    0x28(%eax),%eax
   109bd:	83 ec 08             	sub    $0x8,%esp
   109c0:	50                   	push   %eax
   109c1:	ff 75 e0             	push   -0x20(%ebp)
   109c4:	e8 f3 49 00 00       	call   153bc <_ZN4re363VMM17handle_page_faultEjj>
   109c9:	83 c4 10             	add    $0x10,%esp
   109cc:	84 c0                	test   %al,%al
   109ce:	0f 85 b2 06 00 00    	jne    11086 <isr_handler+0x790>
   109d4:	8b 45 08             	mov    0x8(%ebp),%eax
   109d7:	8b 40 30             	mov    0x30(%eax),%eax
   109da:	83 e0 03             	and    $0x3,%eax
   109dd:	83 f8 03             	cmp    $0x3,%eax
   109e0:	75 6f                	jne    10a51 <isr_handler+0x15b>
   109e2:	8b 45 08             	mov    0x8(%ebp),%eax
   109e5:	8b 40 28             	mov    0x28(%eax),%eax
   109e8:	83 e0 02             	and    $0x2,%eax
   109eb:	85 c0                	test   %eax,%eax
   109ed:	74 08                	je     109f7 <isr_handler+0x101>
   109ef:	8d bb 04 8f ff ff    	lea    -0x70fc(%ebx),%edi
   109f5:	eb 06                	jmp    109fd <isr_handler+0x107>
   109f7:	8d bb 0a 8f ff ff    	lea    -0x70f6(%ebx),%edi
   109fd:	8b 45 08             	mov    0x8(%ebp),%eax
   10a00:	8b 40 28             	mov    0x28(%eax),%eax
   10a03:	83 e0 01             	and    $0x1,%eax
   10a06:	85 c0                	test   %eax,%eax
   10a08:	74 08                	je     10a12 <isr_handler+0x11c>
   10a0a:	8d b3 0f 8f ff ff    	lea    -0x70f1(%ebx),%esi
   10a10:	eb 06                	jmp    10a18 <isr_handler+0x122>
   10a12:	8d b3 1a 8f ff ff    	lea    -0x70e6(%ebx),%esi
   10a18:	8b 45 08             	mov    0x8(%ebp),%eax
   10a1b:	8b 40 2c             	mov    0x2c(%eax),%eax
   10a1e:	89 85 04 ff ff ff    	mov    %eax,-0xfc(%ebp)
   10a24:	e8 e5 39 00 00       	call   1440e <_ZN4re3613TaskScheduler15get_current_tidEv>
   10a29:	83 ec 08             	sub    $0x8,%esp
   10a2c:	57                   	push   %edi
   10a2d:	56                   	push   %esi
   10a2e:	ff b5 04 ff ff ff    	push   -0xfc(%ebp)
   10a34:	ff 75 e0             	push   -0x20(%ebp)
   10a37:	50                   	push   %eax
   10a38:	8d 83 28 8f ff ff    	lea    -0x70d8(%ebx),%eax
   10a3e:	50                   	push   %eax
   10a3f:	e8 c0 1d 00 00       	call   12804 <printf>
   10a44:	83 c4 20             	add    $0x20,%esp
   10a47:	e8 5a 38 00 00       	call   142a6 <_ZN4re3613TaskScheduler17terminate_currentEv>
   10a4c:	e9 36 06 00 00       	jmp    11087 <isr_handler+0x791>
   10a51:	8b 45 08             	mov    0x8(%ebp),%eax
   10a54:	8b 40 24             	mov    0x24(%eax),%eax
   10a57:	3d 80 00 00 00       	cmp    $0x80,%eax
   10a5c:	75 7c                	jne    10ada <isr_handler+0x1e4>
   10a5e:	8b 45 08             	mov    0x8(%ebp),%eax
   10a61:	8b 40 20             	mov    0x20(%eax),%eax
   10a64:	89 85 08 ff ff ff    	mov    %eax,-0xf8(%ebp)
   10a6a:	8b 45 08             	mov    0x8(%ebp),%eax
   10a6d:	8b 40 14             	mov    0x14(%eax),%eax
   10a70:	89 85 0c ff ff ff    	mov    %eax,-0xf4(%ebp)
   10a76:	8b 45 08             	mov    0x8(%ebp),%eax
   10a79:	8b 40 1c             	mov    0x1c(%eax),%eax
   10a7c:	89 85 10 ff ff ff    	mov    %eax,-0xf0(%ebp)
   10a82:	8b 45 08             	mov    0x8(%ebp),%eax
   10a85:	8b 40 18             	mov    0x18(%eax),%eax
   10a88:	89 85 14 ff ff ff    	mov    %eax,-0xec(%ebp)
   10a8e:	8b 45 08             	mov    0x8(%ebp),%eax
   10a91:	8b 40 08             	mov    0x8(%eax),%eax
   10a94:	89 85 18 ff ff ff    	mov    %eax,-0xe8(%ebp)
   10a9a:	8b 45 08             	mov    0x8(%ebp),%eax
   10a9d:	8b 40 04             	mov    0x4(%eax),%eax
   10aa0:	89 85 1c ff ff ff    	mov    %eax,-0xe4(%ebp)
   10aa6:	c7 c0 78 5b 06 00    	mov    $0x65b78,%eax
   10aac:	8b 55 08             	mov    0x8(%ebp),%edx
   10aaf:	89 10                	mov    %edx,(%eax)
   10ab1:	83 ec 0c             	sub    $0xc,%esp
   10ab4:	8d 85 08 ff ff ff    	lea    -0xf8(%ebp),%eax
   10aba:	50                   	push   %eax
   10abb:	e8 1b 81 00 00       	call   18bdb <_ZN4re3614handle_syscallEPNS_11SyscallRegsE>
   10ac0:	83 c4 10             	add    $0x10,%esp
   10ac3:	8b 55 08             	mov    0x8(%ebp),%edx
   10ac6:	89 42 20             	mov    %eax,0x20(%edx)
   10ac9:	c7 c0 78 5b 06 00    	mov    $0x65b78,%eax
   10acf:	c7 00 00 00 00 00    	movl   $0x0,(%eax)
   10ad5:	e9 ad 05 00 00       	jmp    11087 <isr_handler+0x791>
   10ada:	8d 85 48 ff ff ff    	lea    -0xb8(%ebp),%eax
   10ae0:	8d 93 04 ff ff ff    	lea    -0xfc(%ebx),%edx
   10ae6:	b9 20 00 00 00       	mov    $0x20,%ecx
   10aeb:	89 c7                	mov    %eax,%edi
   10aed:	89 d6                	mov    %edx,%esi
   10aef:	f3 a5                	rep movsl %ds:(%esi),%es:(%edi)
   10af1:	8b 45 08             	mov    0x8(%ebp),%eax
   10af4:	8b 40 30             	mov    0x30(%eax),%eax
   10af7:	83 e0 03             	and    $0x3,%eax
   10afa:	83 f8 03             	cmp    $0x3,%eax
   10afd:	75 65                	jne    10b64 <isr_handler+0x26e>
   10aff:	e8 0a 39 00 00       	call   1440e <_ZN4re3613TaskScheduler15get_current_tidEv>
   10b04:	83 ec 08             	sub    $0x8,%esp
   10b07:	50                   	push   %eax
   10b08:	8d 83 68 8f ff ff    	lea    -0x7098(%ebx),%eax
   10b0e:	50                   	push   %eax
   10b0f:	e8 f0 1c 00 00       	call   12804 <printf>
   10b14:	83 c4 10             	add    $0x10,%esp
   10b17:	8b 45 08             	mov    0x8(%ebp),%eax
   10b1a:	8b 40 24             	mov    0x24(%eax),%eax
   10b1d:	83 f8 1f             	cmp    $0x1f,%eax
   10b20:	77 0f                	ja     10b31 <isr_handler+0x23b>
   10b22:	8b 45 08             	mov    0x8(%ebp),%eax
   10b25:	8b 40 24             	mov    0x24(%eax),%eax
   10b28:	8b 84 85 48 ff ff ff 	mov    -0xb8(%ebp,%eax,4),%eax
   10b2f:	eb 06                	jmp    10b37 <isr_handler+0x241>
   10b31:	8d 83 88 8f ff ff    	lea    -0x7078(%ebx),%eax
   10b37:	89 45 c8             	mov    %eax,-0x38(%ebp)
   10b3a:	8b 45 08             	mov    0x8(%ebp),%eax
   10b3d:	8b 50 28             	mov    0x28(%eax),%edx
   10b40:	8b 45 08             	mov    0x8(%ebp),%eax
   10b43:	8b 40 2c             	mov    0x2c(%eax),%eax
   10b46:	52                   	push   %edx
   10b47:	50                   	push   %eax
   10b48:	ff 75 c8             	push   -0x38(%ebp)
   10b4b:	8d 83 90 8f ff ff    	lea    -0x7070(%ebx),%eax
   10b51:	50                   	push   %eax
   10b52:	e8 ad 1c 00 00       	call   12804 <printf>
   10b57:	83 c4 10             	add    $0x10,%esp
   10b5a:	e8 47 37 00 00       	call   142a6 <_ZN4re3613TaskScheduler17terminate_currentEv>
   10b5f:	e9 23 05 00 00       	jmp    11087 <isr_handler+0x791>
   10b64:	e8 26 05 00 00       	call   1108f <_ZN4re369BgaDriver14is_initializedEv>
   10b69:	88 85 47 ff ff ff    	mov    %al,-0xb9(%ebp)
   10b6f:	e8 86 50 01 00       	call   25bfa <_ZN4re363VGA11is_graphicsEv>
   10b74:	88 85 46 ff ff ff    	mov    %al,-0xba(%ebp)
   10b7a:	0f 20 c0             	mov    %cr0,%eax
   10b7d:	89 45 dc             	mov    %eax,-0x24(%ebp)
   10b80:	0f 20 d0             	mov    %cr2,%eax
   10b83:	89 45 d8             	mov    %eax,-0x28(%ebp)
   10b86:	0f 20 d8             	mov    %cr3,%eax
   10b89:	89 45 d4             	mov    %eax,-0x2c(%ebp)
   10b8c:	0f 20 e0             	mov    %cr4,%eax
   10b8f:	89 45 d0             	mov    %eax,-0x30(%ebp)
   10b92:	0f b6 85 47 ff ff ff 	movzbl -0xb9(%ebp),%eax
   10b99:	84 c0                	test   %al,%al
   10b9b:	74 12                	je     10baf <isr_handler+0x2b9>
   10b9d:	83 ec 0c             	sub    $0xc,%esp
   10ba0:	68 00 00 aa 00       	push   $0xaa0000
   10ba5:	e8 82 02 01 00       	call   20e2c <_ZN4re369BgaDriver12clear_screenEj>
   10baa:	83 c4 10             	add    $0x10,%esp
   10bad:	eb 47                	jmp    10bf6 <isr_handler+0x300>
   10baf:	0f b6 85 46 ff ff ff 	movzbl -0xba(%ebp),%eax
   10bb6:	84 c0                	test   %al,%al
   10bb8:	74 0f                	je     10bc9 <isr_handler+0x2d3>
   10bba:	83 ec 0c             	sub    $0xc,%esp
   10bbd:	6a 04                	push   $0x4
   10bbf:	e8 fa 50 01 00       	call   25cbe <_ZN4re363VGA5clearEh>
   10bc4:	83 c4 10             	add    $0x10,%esp
   10bc7:	eb 2d                	jmp    10bf6 <isr_handler+0x300>
   10bc9:	c7 45 cc 00 80 0b 00 	movl   $0xb8000,-0x34(%ebp)
   10bd0:	c7 45 e4 00 00 00 00 	movl   $0x0,-0x1c(%ebp)
   10bd7:	eb 14                	jmp    10bed <isr_handler+0x2f7>
   10bd9:	8b 45 e4             	mov    -0x1c(%ebp),%eax
   10bdc:	8d 14 00             	lea    (%eax,%eax,1),%edx
   10bdf:	8b 45 cc             	mov    -0x34(%ebp),%eax
   10be2:	01 d0                	add    %edx,%eax
   10be4:	66 c7 00 20 4f       	movw   $0x4f20,(%eax)
   10be9:	83 45 e4 01          	addl   $0x1,-0x1c(%ebp)
   10bed:	81 7d e4 cf 07 00 00 	cmpl   $0x7cf,-0x1c(%ebp)
   10bf4:	7e e3                	jle    10bd9 <isr_handler+0x2e3>
   10bf6:	8d 85 47 ff ff ff    	lea    -0xb9(%ebp),%eax
   10bfc:	89 85 3c ff ff ff    	mov    %eax,-0xc4(%ebp)
   10c02:	8d 85 46 ff ff ff    	lea    -0xba(%ebp),%eax
   10c08:	89 85 40 ff ff ff    	mov    %eax,-0xc0(%ebp)
   10c0e:	c7 85 2b ff ff ff 30 	movl   $0x33323130,-0xd5(%ebp)
   10c15:	31 32 33 
   10c18:	c7 85 2f ff ff ff 34 	movl   $0x37363534,-0xd1(%ebp)
   10c1f:	35 36 37 
   10c22:	c7 85 33 ff ff ff 38 	movl   $0x42413938,-0xcd(%ebp)
   10c29:	39 41 42 
   10c2c:	c7 85 37 ff ff ff 43 	movl   $0x46454443,-0xc9(%ebp)
   10c33:	44 45 46 
   10c36:	c6 85 3b ff ff ff 00 	movb   $0x0,-0xc5(%ebp)
   10c3d:	8d 85 2b ff ff ff    	lea    -0xd5(%ebp),%eax
   10c43:	89 85 20 ff ff ff    	mov    %eax,-0xe0(%ebp)
   10c49:	8d 85 3c ff ff ff    	lea    -0xc4(%ebp),%eax
   10c4f:	89 85 24 ff ff ff    	mov    %eax,-0xdc(%ebp)
   10c55:	8d 83 bc 8f ff ff    	lea    -0x7044(%ebx),%eax
   10c5b:	50                   	push   %eax
   10c5c:	6a 00                	push   $0x0
   10c5e:	6a 00                	push   $0x0
   10c60:	8d 85 3c ff ff ff    	lea    -0xc4(%ebp),%eax
   10c66:	50                   	push   %eax
   10c67:	e8 f4 fa ff ff       	call   10760 <_ZZ11isr_handlerENKUliiPKcE_clEiiS0_>
   10c6c:	83 c4 10             	add    $0x10,%esp
   10c6f:	8d 83 10 90 ff ff    	lea    -0x6ff0(%ebx),%eax
   10c75:	50                   	push   %eax
   10c76:	6a 01                	push   $0x1
   10c78:	6a 00                	push   $0x0
   10c7a:	8d 85 3c ff ff ff    	lea    -0xc4(%ebp),%eax
   10c80:	50                   	push   %eax
   10c81:	e8 da fa ff ff       	call   10760 <_ZZ11isr_handlerENKUliiPKcE_clEiiS0_>
   10c86:	83 c4 10             	add    $0x10,%esp
   10c89:	8d 83 bc 8f ff ff    	lea    -0x7044(%ebx),%eax
   10c8f:	50                   	push   %eax
   10c90:	6a 02                	push   $0x2
   10c92:	6a 00                	push   $0x0
   10c94:	8d 85 3c ff ff ff    	lea    -0xc4(%ebp),%eax
   10c9a:	50                   	push   %eax
   10c9b:	e8 c0 fa ff ff       	call   10760 <_ZZ11isr_handlerENKUliiPKcE_clEiiS0_>
   10ca0:	83 c4 10             	add    $0x10,%esp
   10ca3:	8b 45 08             	mov    0x8(%ebp),%eax
   10ca6:	8b 40 24             	mov    0x24(%eax),%eax
   10ca9:	83 f8 1f             	cmp    $0x1f,%eax
   10cac:	77 3d                	ja     10ceb <isr_handler+0x3f5>
   10cae:	8d 83 61 90 ff ff    	lea    -0x6f9f(%ebx),%eax
   10cb4:	50                   	push   %eax
   10cb5:	6a 04                	push   $0x4
   10cb7:	6a 02                	push   $0x2
   10cb9:	8d 85 3c ff ff ff    	lea    -0xc4(%ebp),%eax
   10cbf:	50                   	push   %eax
   10cc0:	e8 9b fa ff ff       	call   10760 <_ZZ11isr_handlerENKUliiPKcE_clEiiS0_>
   10cc5:	83 c4 10             	add    $0x10,%esp
   10cc8:	8b 45 08             	mov    0x8(%ebp),%eax
   10ccb:	8b 40 24             	mov    0x24(%eax),%eax
   10cce:	8b 84 85 48 ff ff ff 	mov    -0xb8(%ebp,%eax,4),%eax
   10cd5:	50                   	push   %eax
   10cd6:	6a 04                	push   $0x4
   10cd8:	6a 0d                	push   $0xd
   10cda:	8d 85 3c ff ff ff    	lea    -0xc4(%ebp),%eax
   10ce0:	50                   	push   %eax
   10ce1:	e8 7a fa ff ff       	call   10760 <_ZZ11isr_handlerENKUliiPKcE_clEiiS0_>
   10ce6:	83 c4 10             	add    $0x10,%esp
   10ce9:	eb 1a                	jmp    10d05 <isr_handler+0x40f>
   10ceb:	8d 83 70 90 ff ff    	lea    -0x6f90(%ebx),%eax
   10cf1:	50                   	push   %eax
   10cf2:	6a 04                	push   $0x4
   10cf4:	6a 02                	push   $0x2
   10cf6:	8d 85 3c ff ff ff    	lea    -0xc4(%ebp),%eax
   10cfc:	50                   	push   %eax
   10cfd:	e8 5e fa ff ff       	call   10760 <_ZZ11isr_handlerENKUliiPKcE_clEiiS0_>
   10d02:	83 c4 10             	add    $0x10,%esp
   10d05:	8d 83 96 90 ff ff    	lea    -0x6f6a(%ebx),%eax
   10d0b:	50                   	push   %eax
   10d0c:	6a 05                	push   $0x5
   10d0e:	6a 02                	push   $0x2
   10d10:	8d 85 3c ff ff ff    	lea    -0xc4(%ebp),%eax
   10d16:	50                   	push   %eax
   10d17:	e8 44 fa ff ff       	call   10760 <_ZZ11isr_handlerENKUliiPKcE_clEiiS0_>
   10d1c:	83 c4 10             	add    $0x10,%esp
   10d1f:	8b 45 08             	mov    0x8(%ebp),%eax
   10d22:	8b 40 28             	mov    0x28(%eax),%eax
   10d25:	50                   	push   %eax
   10d26:	6a 05                	push   $0x5
   10d28:	6a 0e                	push   $0xe
   10d2a:	8d 85 20 ff ff ff    	lea    -0xe0(%ebp),%eax
   10d30:	50                   	push   %eax
   10d31:	e8 44 fb ff ff       	call   1087a <_ZZ11isr_handlerENKUliijE_clEiij>
   10d36:	83 c4 10             	add    $0x10,%esp
   10d39:	8d 83 a2 90 ff ff    	lea    -0x6f5e(%ebx),%eax
   10d3f:	50                   	push   %eax
   10d40:	6a 07                	push   $0x7
   10d42:	6a 02                	push   $0x2
   10d44:	8d 85 3c ff ff ff    	lea    -0xc4(%ebp),%eax
   10d4a:	50                   	push   %eax
   10d4b:	e8 10 fa ff ff       	call   10760 <_ZZ11isr_handlerENKUliiPKcE_clEiiS0_>
   10d50:	83 c4 10             	add    $0x10,%esp
   10d53:	8b 45 08             	mov    0x8(%ebp),%eax
   10d56:	8b 40 20             	mov    0x20(%eax),%eax
   10d59:	50                   	push   %eax
   10d5a:	6a 07                	push   $0x7
   10d5c:	6a 07                	push   $0x7
   10d5e:	8d 85 20 ff ff ff    	lea    -0xe0(%ebp),%eax
   10d64:	50                   	push   %eax
   10d65:	e8 10 fb ff ff       	call   1087a <_ZZ11isr_handlerENKUliijE_clEiij>
   10d6a:	83 c4 10             	add    $0x10,%esp
   10d6d:	8d 83 a7 90 ff ff    	lea    -0x6f59(%ebx),%eax
   10d73:	50                   	push   %eax
   10d74:	6a 07                	push   $0x7
   10d76:	6a 16                	push   $0x16
   10d78:	8d 85 3c ff ff ff    	lea    -0xc4(%ebp),%eax
   10d7e:	50                   	push   %eax
   10d7f:	e8 dc f9 ff ff       	call   10760 <_ZZ11isr_handlerENKUliiPKcE_clEiiS0_>
   10d84:	83 c4 10             	add    $0x10,%esp
   10d87:	8b 45 08             	mov    0x8(%ebp),%eax
   10d8a:	8b 40 14             	mov    0x14(%eax),%eax
   10d8d:	50                   	push   %eax
   10d8e:	6a 07                	push   $0x7
   10d90:	6a 1b                	push   $0x1b
   10d92:	8d 85 20 ff ff ff    	lea    -0xe0(%ebp),%eax
   10d98:	50                   	push   %eax
   10d99:	e8 dc fa ff ff       	call   1087a <_ZZ11isr_handlerENKUliijE_clEiij>
   10d9e:	83 c4 10             	add    $0x10,%esp
   10da1:	8d 83 ac 90 ff ff    	lea    -0x6f54(%ebx),%eax
   10da7:	50                   	push   %eax
   10da8:	6a 07                	push   $0x7
   10daa:	6a 2a                	push   $0x2a
   10dac:	8d 85 3c ff ff ff    	lea    -0xc4(%ebp),%eax
   10db2:	50                   	push   %eax
   10db3:	e8 a8 f9 ff ff       	call   10760 <_ZZ11isr_handlerENKUliiPKcE_clEiiS0_>
   10db8:	83 c4 10             	add    $0x10,%esp
   10dbb:	8b 45 08             	mov    0x8(%ebp),%eax
   10dbe:	8b 40 1c             	mov    0x1c(%eax),%eax
   10dc1:	50                   	push   %eax
   10dc2:	6a 07                	push   $0x7
   10dc4:	6a 2f                	push   $0x2f
   10dc6:	8d 85 20 ff ff ff    	lea    -0xe0(%ebp),%eax
   10dcc:	50                   	push   %eax
   10dcd:	e8 a8 fa ff ff       	call   1087a <_ZZ11isr_handlerENKUliijE_clEiij>
   10dd2:	83 c4 10             	add    $0x10,%esp
   10dd5:	8d 83 b1 90 ff ff    	lea    -0x6f4f(%ebx),%eax
   10ddb:	50                   	push   %eax
   10ddc:	6a 07                	push   $0x7
   10dde:	6a 3e                	push   $0x3e
   10de0:	8d 85 3c ff ff ff    	lea    -0xc4(%ebp),%eax
   10de6:	50                   	push   %eax
   10de7:	e8 74 f9 ff ff       	call   10760 <_ZZ11isr_handlerENKUliiPKcE_clEiiS0_>
   10dec:	83 c4 10             	add    $0x10,%esp
   10def:	8b 45 08             	mov    0x8(%ebp),%eax
   10df2:	8b 40 18             	mov    0x18(%eax),%eax
   10df5:	50                   	push   %eax
   10df6:	6a 07                	push   $0x7
   10df8:	6a 43                	push   $0x43
   10dfa:	8d 85 20 ff ff ff    	lea    -0xe0(%ebp),%eax
   10e00:	50                   	push   %eax
   10e01:	e8 74 fa ff ff       	call   1087a <_ZZ11isr_handlerENKUliijE_clEiij>
   10e06:	83 c4 10             	add    $0x10,%esp
   10e09:	8d 83 b6 90 ff ff    	lea    -0x6f4a(%ebx),%eax
   10e0f:	50                   	push   %eax
   10e10:	6a 08                	push   $0x8
   10e12:	6a 02                	push   $0x2
   10e14:	8d 85 3c ff ff ff    	lea    -0xc4(%ebp),%eax
   10e1a:	50                   	push   %eax
   10e1b:	e8 40 f9 ff ff       	call   10760 <_ZZ11isr_handlerENKUliiPKcE_clEiiS0_>
   10e20:	83 c4 10             	add    $0x10,%esp
   10e23:	8b 45 08             	mov    0x8(%ebp),%eax
   10e26:	8b 40 08             	mov    0x8(%eax),%eax
   10e29:	50                   	push   %eax
   10e2a:	6a 08                	push   $0x8
   10e2c:	6a 07                	push   $0x7
   10e2e:	8d 85 20 ff ff ff    	lea    -0xe0(%ebp),%eax
   10e34:	50                   	push   %eax
   10e35:	e8 40 fa ff ff       	call   1087a <_ZZ11isr_handlerENKUliijE_clEiij>
   10e3a:	83 c4 10             	add    $0x10,%esp
   10e3d:	8d 83 bb 90 ff ff    	lea    -0x6f45(%ebx),%eax
   10e43:	50                   	push   %eax
   10e44:	6a 08                	push   $0x8
   10e46:	6a 16                	push   $0x16
   10e48:	8d 85 3c ff ff ff    	lea    -0xc4(%ebp),%eax
   10e4e:	50                   	push   %eax
   10e4f:	e8 0c f9 ff ff       	call   10760 <_ZZ11isr_handlerENKUliiPKcE_clEiiS0_>
   10e54:	83 c4 10             	add    $0x10,%esp
   10e57:	8b 45 08             	mov    0x8(%ebp),%eax
   10e5a:	8b 40 04             	mov    0x4(%eax),%eax
   10e5d:	50                   	push   %eax
   10e5e:	6a 08                	push   $0x8
   10e60:	6a 1b                	push   $0x1b
   10e62:	8d 85 20 ff ff ff    	lea    -0xe0(%ebp),%eax
   10e68:	50                   	push   %eax
   10e69:	e8 0c fa ff ff       	call   1087a <_ZZ11isr_handlerENKUliijE_clEiij>
   10e6e:	83 c4 10             	add    $0x10,%esp
   10e71:	8d 83 c0 90 ff ff    	lea    -0x6f40(%ebx),%eax
   10e77:	50                   	push   %eax
   10e78:	6a 08                	push   $0x8
   10e7a:	6a 2a                	push   $0x2a
   10e7c:	8d 85 3c ff ff ff    	lea    -0xc4(%ebp),%eax
   10e82:	50                   	push   %eax
   10e83:	e8 d8 f8 ff ff       	call   10760 <_ZZ11isr_handlerENKUliiPKcE_clEiiS0_>
   10e88:	83 c4 10             	add    $0x10,%esp
   10e8b:	8b 45 08             	mov    0x8(%ebp),%eax
   10e8e:	8b 40 0c             	mov    0xc(%eax),%eax
   10e91:	50                   	push   %eax
   10e92:	6a 08                	push   $0x8
   10e94:	6a 2f                	push   $0x2f
   10e96:	8d 85 20 ff ff ff    	lea    -0xe0(%ebp),%eax
   10e9c:	50                   	push   %eax
   10e9d:	e8 d8 f9 ff ff       	call   1087a <_ZZ11isr_handlerENKUliijE_clEiij>
   10ea2:	83 c4 10             	add    $0x10,%esp
   10ea5:	8d 83 c5 90 ff ff    	lea    -0x6f3b(%ebx),%eax
   10eab:	50                   	push   %eax
   10eac:	6a 08                	push   $0x8
   10eae:	6a 3e                	push   $0x3e
   10eb0:	8d 85 3c ff ff ff    	lea    -0xc4(%ebp),%eax
   10eb6:	50                   	push   %eax
   10eb7:	e8 a4 f8 ff ff       	call   10760 <_ZZ11isr_handlerENKUliiPKcE_clEiiS0_>
   10ebc:	83 c4 10             	add    $0x10,%esp
   10ebf:	8b 45 08             	mov    0x8(%ebp),%eax
   10ec2:	8b 40 10             	mov    0x10(%eax),%eax
   10ec5:	50                   	push   %eax
   10ec6:	6a 08                	push   $0x8
   10ec8:	6a 43                	push   $0x43
   10eca:	8d 85 20 ff ff ff    	lea    -0xe0(%ebp),%eax
   10ed0:	50                   	push   %eax
   10ed1:	e8 a4 f9 ff ff       	call   1087a <_ZZ11isr_handlerENKUliijE_clEiij>
   10ed6:	83 c4 10             	add    $0x10,%esp
   10ed9:	8d 83 ca 90 ff ff    	lea    -0x6f36(%ebx),%eax
   10edf:	50                   	push   %eax
   10ee0:	6a 0a                	push   $0xa
   10ee2:	6a 02                	push   $0x2
   10ee4:	8d 85 3c ff ff ff    	lea    -0xc4(%ebp),%eax
   10eea:	50                   	push   %eax
   10eeb:	e8 70 f8 ff ff       	call   10760 <_ZZ11isr_handlerENKUliiPKcE_clEiiS0_>
   10ef0:	83 c4 10             	add    $0x10,%esp
   10ef3:	8b 45 08             	mov    0x8(%ebp),%eax
   10ef6:	8b 40 2c             	mov    0x2c(%eax),%eax
   10ef9:	50                   	push   %eax
   10efa:	6a 0a                	push   $0xa
   10efc:	6a 07                	push   $0x7
   10efe:	8d 85 20 ff ff ff    	lea    -0xe0(%ebp),%eax
   10f04:	50                   	push   %eax
   10f05:	e8 70 f9 ff ff       	call   1087a <_ZZ11isr_handlerENKUliijE_clEiij>
   10f0a:	83 c4 10             	add    $0x10,%esp
   10f0d:	8d 83 d0 90 ff ff    	lea    -0x6f30(%ebx),%eax
   10f13:	50                   	push   %eax
   10f14:	6a 0a                	push   $0xa
   10f16:	6a 16                	push   $0x16
   10f18:	8d 85 3c ff ff ff    	lea    -0xc4(%ebp),%eax
   10f1e:	50                   	push   %eax
   10f1f:	e8 3c f8 ff ff       	call   10760 <_ZZ11isr_handlerENKUliiPKcE_clEiiS0_>
   10f24:	83 c4 10             	add    $0x10,%esp
   10f27:	8b 45 08             	mov    0x8(%ebp),%eax
   10f2a:	8b 40 30             	mov    0x30(%eax),%eax
   10f2d:	50                   	push   %eax
   10f2e:	6a 0a                	push   $0xa
   10f30:	6a 1b                	push   $0x1b
   10f32:	8d 85 20 ff ff ff    	lea    -0xe0(%ebp),%eax
   10f38:	50                   	push   %eax
   10f39:	e8 3c f9 ff ff       	call   1087a <_ZZ11isr_handlerENKUliijE_clEiij>
   10f3e:	83 c4 10             	add    $0x10,%esp
   10f41:	8d 83 d6 90 ff ff    	lea    -0x6f2a(%ebx),%eax
   10f47:	50                   	push   %eax
   10f48:	6a 0a                	push   $0xa
   10f4a:	6a 2a                	push   $0x2a
   10f4c:	8d 85 3c ff ff ff    	lea    -0xc4(%ebp),%eax
   10f52:	50                   	push   %eax
   10f53:	e8 08 f8 ff ff       	call   10760 <_ZZ11isr_handlerENKUliiPKcE_clEiiS0_>
   10f58:	83 c4 10             	add    $0x10,%esp
   10f5b:	8b 45 08             	mov    0x8(%ebp),%eax
   10f5e:	8b 00                	mov    (%eax),%eax
   10f60:	50                   	push   %eax
   10f61:	6a 0a                	push   $0xa
   10f63:	6a 2f                	push   $0x2f
   10f65:	8d 85 20 ff ff ff    	lea    -0xe0(%ebp),%eax
   10f6b:	50                   	push   %eax
   10f6c:	e8 09 f9 ff ff       	call   1087a <_ZZ11isr_handlerENKUliijE_clEiij>
   10f71:	83 c4 10             	add    $0x10,%esp
   10f74:	8d 83 dc 90 ff ff    	lea    -0x6f24(%ebx),%eax
   10f7a:	50                   	push   %eax
   10f7b:	6a 0a                	push   $0xa
   10f7d:	6a 3e                	push   $0x3e
   10f7f:	8d 85 3c ff ff ff    	lea    -0xc4(%ebp),%eax
   10f85:	50                   	push   %eax
   10f86:	e8 d5 f7 ff ff       	call   10760 <_ZZ11isr_handlerENKUliiPKcE_clEiiS0_>
   10f8b:	83 c4 10             	add    $0x10,%esp
   10f8e:	8b 45 08             	mov    0x8(%ebp),%eax
   10f91:	8b 40 34             	mov    0x34(%eax),%eax
   10f94:	50                   	push   %eax
   10f95:	6a 0a                	push   $0xa
   10f97:	6a 43                	push   $0x43
   10f99:	8d 85 20 ff ff ff    	lea    -0xe0(%ebp),%eax
   10f9f:	50                   	push   %eax
   10fa0:	e8 d5 f8 ff ff       	call   1087a <_ZZ11isr_handlerENKUliijE_clEiij>
   10fa5:	83 c4 10             	add    $0x10,%esp
   10fa8:	8d 83 e2 90 ff ff    	lea    -0x6f1e(%ebx),%eax
   10fae:	50                   	push   %eax
   10faf:	6a 0c                	push   $0xc
   10fb1:	6a 02                	push   $0x2
   10fb3:	8d 85 3c ff ff ff    	lea    -0xc4(%ebp),%eax
   10fb9:	50                   	push   %eax
   10fba:	e8 a1 f7 ff ff       	call   10760 <_ZZ11isr_handlerENKUliiPKcE_clEiiS0_>
   10fbf:	83 c4 10             	add    $0x10,%esp
   10fc2:	ff 75 dc             	push   -0x24(%ebp)
   10fc5:	6a 0c                	push   $0xc
   10fc7:	6a 07                	push   $0x7
   10fc9:	8d 85 20 ff ff ff    	lea    -0xe0(%ebp),%eax
   10fcf:	50                   	push   %eax
   10fd0:	e8 a5 f8 ff ff       	call   1087a <_ZZ11isr_handlerENKUliijE_clEiij>
   10fd5:	83 c4 10             	add    $0x10,%esp
   10fd8:	8d 83 e8 90 ff ff    	lea    -0x6f18(%ebx),%eax
   10fde:	50                   	push   %eax
   10fdf:	6a 0c                	push   $0xc
   10fe1:	6a 16                	push   $0x16
   10fe3:	8d 85 3c ff ff ff    	lea    -0xc4(%ebp),%eax
   10fe9:	50                   	push   %eax
   10fea:	e8 71 f7 ff ff       	call   10760 <_ZZ11isr_handlerENKUliiPKcE_clEiiS0_>
   10fef:	83 c4 10             	add    $0x10,%esp
   10ff2:	ff 75 d8             	push   -0x28(%ebp)
   10ff5:	6a 0c                	push   $0xc
   10ff7:	6a 1b                	push   $0x1b
   10ff9:	8d 85 20 ff ff ff    	lea    -0xe0(%ebp),%eax
   10fff:	50                   	push   %eax
   11000:	e8 75 f8 ff ff       	call   1087a <_ZZ11isr_handlerENKUliijE_clEiij>
   11005:	83 c4 10             	add    $0x10,%esp
   11008:	8d 83 ee 90 ff ff    	lea    -0x6f12(%ebx),%eax
   1100e:	50                   	push   %eax
   1100f:	6a 0c                	push   $0xc
   11011:	6a 2a                	push   $0x2a
   11013:	8d 85 3c ff ff ff    	lea    -0xc4(%ebp),%eax
   11019:	50                   	push   %eax
   1101a:	e8 41 f7 ff ff       	call   10760 <_ZZ11isr_handlerENKUliiPKcE_clEiiS0_>
   1101f:	83 c4 10             	add    $0x10,%esp
   11022:	ff 75 d4             	push   -0x2c(%ebp)
   11025:	6a 0c                	push   $0xc
   11027:	6a 2f                	push   $0x2f
   11029:	8d 85 20 ff ff ff    	lea    -0xe0(%ebp),%eax
   1102f:	50                   	push   %eax
   11030:	e8 45 f8 ff ff       	call   1087a <_ZZ11isr_handlerENKUliijE_clEiij>
   11035:	83 c4 10             	add    $0x10,%esp
   11038:	8d 83 f4 90 ff ff    	lea    -0x6f0c(%ebx),%eax
   1103e:	50                   	push   %eax
   1103f:	6a 0c                	push   $0xc
   11041:	6a 3e                	push   $0x3e
   11043:	8d 85 3c ff ff ff    	lea    -0xc4(%ebp),%eax
   11049:	50                   	push   %eax
   1104a:	e8 11 f7 ff ff       	call   10760 <_ZZ11isr_handlerENKUliiPKcE_clEiiS0_>
   1104f:	83 c4 10             	add    $0x10,%esp
   11052:	ff 75 d0             	push   -0x30(%ebp)
   11055:	6a 0c                	push   $0xc
   11057:	6a 43                	push   $0x43
   11059:	8d 85 20 ff ff ff    	lea    -0xe0(%ebp),%eax
   1105f:	50                   	push   %eax
   11060:	e8 15 f8 ff ff       	call   1087a <_ZZ11isr_handlerENKUliijE_clEiij>
   11065:	83 c4 10             	add    $0x10,%esp
   11068:	8d 83 fa 90 ff ff    	lea    -0x6f06(%ebx),%eax
   1106e:	50                   	push   %eax
   1106f:	6a 0f                	push   $0xf
   11071:	6a 00                	push   $0x0
   11073:	8d 85 3c ff ff ff    	lea    -0xc4(%ebp),%eax
   11079:	50                   	push   %eax
   1107a:	e8 e1 f6 ff ff       	call   10760 <_ZZ11isr_handlerENKUliiPKcE_clEiiS0_>
   1107f:	83 c4 10             	add    $0x10,%esp
   11082:	fa                   	cli
   11083:	f4                   	hlt
   11084:	eb fc                	jmp    11082 <isr_handler+0x78c>
   11086:	90                   	nop
   11087:	8d 65 f4             	lea    -0xc(%ebp),%esp
   1108a:	5b                   	pop    %ebx
   1108b:	5e                   	pop    %esi
   1108c:	5f                   	pop    %edi
   1108d:	5d                   	pop    %ebp
   1108e:	c3                   	ret

0001108f <_ZN4re369BgaDriver14is_initializedEv>:
   1108f:	55                   	push   %ebp
   11090:	89 e5                	mov    %esp,%ebp
   11092:	e8 10 00 00 00       	call   110a7 <__x86.get_pc_thunk.ax>
   11097:	05 65 e0 01 00       	add    $0x1e065,%eax
   1109c:	c7 c0 b4 7c 07 00    	mov    $0x77cb4,%eax
   110a2:	0f b6 00             	movzbl (%eax),%eax
   110a5:	5d                   	pop    %ebp
   110a6:	c3                   	ret

000110a7 <__x86.get_pc_thunk.ax>:
   110a7:	8b 04 24             	mov    (%esp),%eax
   110aa:	c3                   	ret

000110ab <__x86.get_pc_thunk.bx>:
   110ab:	8b 1c 24             	mov    (%esp),%ebx
   110ae:	c3                   	ret

000110af <_ZN4re36L4outbEth>:
   110af:	55                   	push   %ebp
   110b0:	89 e5                	mov    %esp,%ebp
   110b2:	83 ec 08             	sub    $0x8,%esp
   110b5:	e8 ed ff ff ff       	call   110a7 <__x86.get_pc_thunk.ax>
   110ba:	05 42 e0 01 00       	add    $0x1e042,%eax
   110bf:	8b 55 08             	mov    0x8(%ebp),%edx
   110c2:	8b 45 0c             	mov    0xc(%ebp),%eax
   110c5:	66 89 55 fc          	mov    %dx,-0x4(%ebp)
   110c9:	88 45 f8             	mov    %al,-0x8(%ebp)
   110cc:	0f b6 45 f8          	movzbl -0x8(%ebp),%eax
   110d0:	0f b7 55 fc          	movzwl -0x4(%ebp),%edx
   110d4:	ee                   	out    %al,(%dx)
   110d5:	90                   	nop
   110d6:	c9                   	leave
   110d7:	c3                   	ret

000110d8 <_ZN4re36L3inbEt>:
   110d8:	55                   	push   %ebp
   110d9:	89 e5                	mov    %esp,%ebp
   110db:	83 ec 14             	sub    $0x14,%esp
   110de:	e8 c4 ff ff ff       	call   110a7 <__x86.get_pc_thunk.ax>
   110e3:	05 19 e0 01 00       	add    $0x1e019,%eax
   110e8:	8b 45 08             	mov    0x8(%ebp),%eax
   110eb:	66 89 45 ec          	mov    %ax,-0x14(%ebp)
   110ef:	0f b7 45 ec          	movzwl -0x14(%ebp),%eax
   110f3:	89 c2                	mov    %eax,%edx
   110f5:	ec                   	in     (%dx),%al
   110f6:	88 45 ff             	mov    %al,-0x1(%ebp)
   110f9:	0f b6 45 ff          	movzbl -0x1(%ebp),%eax
   110fd:	c9                   	leave
   110fe:	c3                   	ret

000110ff <_ZN4re36L7io_waitEv>:
   110ff:	55                   	push   %ebp
   11100:	89 e5                	mov    %esp,%ebp
   11102:	e8 a0 ff ff ff       	call   110a7 <__x86.get_pc_thunk.ax>
   11107:	05 f5 df 01 00       	add    $0x1dff5,%eax
   1110c:	6a 00                	push   $0x0
   1110e:	68 80 00 00 00       	push   $0x80
   11113:	e8 97 ff ff ff       	call   110af <_ZN4re36L4outbEth>
   11118:	83 c4 08             	add    $0x8,%esp
   1111b:	90                   	nop
   1111c:	c9                   	leave
   1111d:	c3                   	ret

0001111e <_ZN4re3612pic_send_eoiEh>:
   1111e:	55                   	push   %ebp
   1111f:	89 e5                	mov    %esp,%ebp
   11121:	83 ec 04             	sub    $0x4,%esp
   11124:	e8 7e ff ff ff       	call   110a7 <__x86.get_pc_thunk.ax>
   11129:	05 d3 df 01 00       	add    $0x1dfd3,%eax
   1112e:	8b 45 08             	mov    0x8(%ebp),%eax
   11131:	88 45 fc             	mov    %al,-0x4(%ebp)
   11134:	80 7d fc 07          	cmpb   $0x7,-0x4(%ebp)
   11138:	76 0f                	jbe    11149 <_ZN4re3612pic_send_eoiEh+0x2b>
   1113a:	6a 20                	push   $0x20
   1113c:	68 a0 00 00 00       	push   $0xa0
   11141:	e8 69 ff ff ff       	call   110af <_ZN4re36L4outbEth>
   11146:	83 c4 08             	add    $0x8,%esp
   11149:	6a 20                	push   $0x20
   1114b:	6a 20                	push   $0x20
   1114d:	e8 5d ff ff ff       	call   110af <_ZN4re36L4outbEth>
   11152:	83 c4 08             	add    $0x8,%esp
   11155:	90                   	nop
   11156:	c9                   	leave
   11157:	c3                   	ret

00011158 <_ZN4re369pic_remapEii>:
   11158:	55                   	push   %ebp
   11159:	89 e5                	mov    %esp,%ebp
   1115b:	83 ec 10             	sub    $0x10,%esp
   1115e:	e8 44 ff ff ff       	call   110a7 <__x86.get_pc_thunk.ax>
   11163:	05 99 df 01 00       	add    $0x1df99,%eax
   11168:	6a 21                	push   $0x21
   1116a:	e8 69 ff ff ff       	call   110d8 <_ZN4re36L3inbEt>
   1116f:	83 c4 04             	add    $0x4,%esp
   11172:	88 45 ff             	mov    %al,-0x1(%ebp)
   11175:	68 a1 00 00 00       	push   $0xa1
   1117a:	e8 59 ff ff ff       	call   110d8 <_ZN4re36L3inbEt>
   1117f:	83 c4 04             	add    $0x4,%esp
   11182:	88 45 fe             	mov    %al,-0x2(%ebp)
   11185:	6a 11                	push   $0x11
   11187:	6a 20                	push   $0x20
   11189:	e8 21 ff ff ff       	call   110af <_ZN4re36L4outbEth>
   1118e:	83 c4 08             	add    $0x8,%esp
   11191:	e8 69 ff ff ff       	call   110ff <_ZN4re36L7io_waitEv>
   11196:	6a 11                	push   $0x11
   11198:	68 a0 00 00 00       	push   $0xa0
   1119d:	e8 0d ff ff ff       	call   110af <_ZN4re36L4outbEth>
   111a2:	83 c4 08             	add    $0x8,%esp
   111a5:	e8 55 ff ff ff       	call   110ff <_ZN4re36L7io_waitEv>
   111aa:	8b 45 08             	mov    0x8(%ebp),%eax
   111ad:	0f b6 c0             	movzbl %al,%eax
   111b0:	50                   	push   %eax
   111b1:	6a 21                	push   $0x21
   111b3:	e8 f7 fe ff ff       	call   110af <_ZN4re36L4outbEth>
   111b8:	83 c4 08             	add    $0x8,%esp
   111bb:	e8 3f ff ff ff       	call   110ff <_ZN4re36L7io_waitEv>
   111c0:	8b 45 0c             	mov    0xc(%ebp),%eax
   111c3:	0f b6 c0             	movzbl %al,%eax
   111c6:	50                   	push   %eax
   111c7:	68 a1 00 00 00       	push   $0xa1
   111cc:	e8 de fe ff ff       	call   110af <_ZN4re36L4outbEth>
   111d1:	83 c4 08             	add    $0x8,%esp
   111d4:	e8 26 ff ff ff       	call   110ff <_ZN4re36L7io_waitEv>
   111d9:	6a 04                	push   $0x4
   111db:	6a 21                	push   $0x21
   111dd:	e8 cd fe ff ff       	call   110af <_ZN4re36L4outbEth>
   111e2:	83 c4 08             	add    $0x8,%esp
   111e5:	e8 15 ff ff ff       	call   110ff <_ZN4re36L7io_waitEv>
   111ea:	6a 02                	push   $0x2
   111ec:	68 a1 00 00 00       	push   $0xa1
   111f1:	e8 b9 fe ff ff       	call   110af <_ZN4re36L4outbEth>
   111f6:	83 c4 08             	add    $0x8,%esp
   111f9:	e8 01 ff ff ff       	call   110ff <_ZN4re36L7io_waitEv>
   111fe:	6a 01                	push   $0x1
   11200:	6a 21                	push   $0x21
   11202:	e8 a8 fe ff ff       	call   110af <_ZN4re36L4outbEth>
   11207:	83 c4 08             	add    $0x8,%esp
   1120a:	e8 f0 fe ff ff       	call   110ff <_ZN4re36L7io_waitEv>
   1120f:	6a 01                	push   $0x1
   11211:	68 a1 00 00 00       	push   $0xa1
   11216:	e8 94 fe ff ff       	call   110af <_ZN4re36L4outbEth>
   1121b:	83 c4 08             	add    $0x8,%esp
   1121e:	e8 dc fe ff ff       	call   110ff <_ZN4re36L7io_waitEv>
   11223:	0f b6 45 ff          	movzbl -0x1(%ebp),%eax
   11227:	50                   	push   %eax
   11228:	6a 21                	push   $0x21
   1122a:	e8 80 fe ff ff       	call   110af <_ZN4re36L4outbEth>
   1122f:	83 c4 08             	add    $0x8,%esp
   11232:	0f b6 45 fe          	movzbl -0x2(%ebp),%eax
   11236:	50                   	push   %eax
   11237:	68 a1 00 00 00       	push   $0xa1
   1123c:	e8 6e fe ff ff       	call   110af <_ZN4re36L4outbEth>
   11241:	83 c4 08             	add    $0x8,%esp
   11244:	90                   	nop
   11245:	c9                   	leave
   11246:	c3                   	ret
   11247:	90                   	nop

00011248 <_ZN4re3621PhysicalMemoryManager4initEjj>:
   11248:	55                   	push   %ebp
   11249:	89 e5                	mov    %esp,%ebp
   1124b:	83 ec 10             	sub    $0x10,%esp
   1124e:	e8 54 fe ff ff       	call   110a7 <__x86.get_pc_thunk.ax>
   11253:	05 a9 de 01 00       	add    $0x1dea9,%eax
   11258:	8b 55 08             	mov    0x8(%ebp),%edx
   1125b:	89 90 0c 17 00 00    	mov    %edx,0x170c(%eax)
   11261:	8b 55 0c             	mov    0xc(%ebp),%edx
   11264:	c1 ea 0c             	shr    $0xc,%edx
   11267:	89 90 10 17 00 00    	mov    %edx,0x1710(%eax)
   1126d:	8b 90 10 17 00 00    	mov    0x1710(%eax),%edx
   11273:	89 90 14 17 00 00    	mov    %edx,0x1714(%eax)
   11279:	8b 90 10 17 00 00    	mov    0x1710(%eax),%edx
   1127f:	c1 ea 05             	shr    $0x5,%edx
   11282:	89 55 f4             	mov    %edx,-0xc(%ebp)
   11285:	c7 45 fc 00 00 00 00 	movl   $0x0,-0x4(%ebp)
   1128c:	eb 18                	jmp    112a6 <_ZN4re3621PhysicalMemoryManager4initEjj+0x5e>
   1128e:	8b 90 0c 17 00 00    	mov    0x170c(%eax),%edx
   11294:	8b 4d fc             	mov    -0x4(%ebp),%ecx
   11297:	c1 e1 02             	shl    $0x2,%ecx
   1129a:	01 ca                	add    %ecx,%edx
   1129c:	c7 02 ff ff ff ff    	movl   $0xffffffff,(%edx)
   112a2:	83 45 fc 01          	addl   $0x1,-0x4(%ebp)
   112a6:	8b 55 fc             	mov    -0x4(%ebp),%edx
   112a9:	3b 55 f4             	cmp    -0xc(%ebp),%edx
   112ac:	72 e0                	jb     1128e <_ZN4re3621PhysicalMemoryManager4initEjj+0x46>
   112ae:	8b 90 10 17 00 00    	mov    0x1710(%eax),%edx
   112b4:	83 c2 1f             	add    $0x1f,%edx
   112b7:	c1 ea 05             	shr    $0x5,%edx
   112ba:	c1 e2 02             	shl    $0x2,%edx
   112bd:	89 55 f0             	mov    %edx,-0x10(%ebp)
   112c0:	8b 4d 08             	mov    0x8(%ebp),%ecx
   112c3:	8b 55 f0             	mov    -0x10(%ebp),%edx
   112c6:	01 ca                	add    %ecx,%edx
   112c8:	89 90 18 17 00 00    	mov    %edx,0x1718(%eax)
   112ce:	c7 45 f8 00 00 00 00 	movl   $0x0,-0x8(%ebp)
   112d5:	eb 12                	jmp    112e9 <_ZN4re3621PhysicalMemoryManager4initEjj+0xa1>
   112d7:	8b 88 18 17 00 00    	mov    0x1718(%eax),%ecx
   112dd:	8b 55 f8             	mov    -0x8(%ebp),%edx
   112e0:	01 ca                	add    %ecx,%edx
   112e2:	c6 02 00             	movb   $0x0,(%edx)
   112e5:	83 45 f8 01          	addl   $0x1,-0x8(%ebp)
   112e9:	8b 90 10 17 00 00    	mov    0x1710(%eax),%edx
   112ef:	39 55 f8             	cmp    %edx,-0x8(%ebp)
   112f2:	72 e3                	jb     112d7 <_ZN4re3621PhysicalMemoryManager4initEjj+0x8f>
   112f4:	90                   	nop
   112f5:	90                   	nop
   112f6:	c9                   	leave
   112f7:	c3                   	ret

000112f8 <_ZN4re3621PhysicalMemoryManager15set_region_freeEjj>:
   112f8:	55                   	push   %ebp
   112f9:	89 e5                	mov    %esp,%ebp
   112fb:	53                   	push   %ebx
   112fc:	83 ec 14             	sub    $0x14,%esp
   112ff:	e8 a7 fd ff ff       	call   110ab <__x86.get_pc_thunk.bx>
   11304:	81 c3 f8 dd 01 00    	add    $0x1ddf8,%ebx
   1130a:	8b 45 08             	mov    0x8(%ebp),%eax
   1130d:	c1 e8 0c             	shr    $0xc,%eax
   11310:	89 45 f4             	mov    %eax,-0xc(%ebp)
   11313:	8b 45 0c             	mov    0xc(%ebp),%eax
   11316:	c1 e8 0c             	shr    $0xc,%eax
   11319:	89 45 f0             	mov    %eax,-0x10(%ebp)
   1131c:	eb 25                	jmp    11343 <_ZN4re3621PhysicalMemoryManager15set_region_freeEjj+0x4b>
   1131e:	83 ec 0c             	sub    $0xc,%esp
   11321:	ff 75 f4             	push   -0xc(%ebp)
   11324:	e8 79 04 00 00       	call   117a2 <_ZN4re3621PhysicalMemoryManager11clear_frameEj>
   11329:	83 c4 10             	add    $0x10,%esp
   1132c:	8b 83 14 17 00 00    	mov    0x1714(%ebx),%eax
   11332:	83 e8 01             	sub    $0x1,%eax
   11335:	89 83 14 17 00 00    	mov    %eax,0x1714(%ebx)
   1133b:	83 6d f0 01          	subl   $0x1,-0x10(%ebp)
   1133f:	83 45 f4 01          	addl   $0x1,-0xc(%ebp)
   11343:	83 7d f0 00          	cmpl   $0x0,-0x10(%ebp)
   11347:	75 d5                	jne    1131e <_ZN4re3621PhysicalMemoryManager15set_region_freeEjj+0x26>
   11349:	90                   	nop
   1134a:	90                   	nop
   1134b:	8b 5d fc             	mov    -0x4(%ebp),%ebx
   1134e:	c9                   	leave
   1134f:	c3                   	ret

00011350 <_ZN4re3621PhysicalMemoryManager15set_region_usedEjj>:
   11350:	55                   	push   %ebp
   11351:	89 e5                	mov    %esp,%ebp
   11353:	53                   	push   %ebx
   11354:	83 ec 14             	sub    $0x14,%esp
   11357:	e8 4f fd ff ff       	call   110ab <__x86.get_pc_thunk.bx>
   1135c:	81 c3 a0 dd 01 00    	add    $0x1dda0,%ebx
   11362:	8b 45 08             	mov    0x8(%ebp),%eax
   11365:	c1 e8 0c             	shr    $0xc,%eax
   11368:	89 45 f4             	mov    %eax,-0xc(%ebp)
   1136b:	8b 45 0c             	mov    0xc(%ebp),%eax
   1136e:	c1 e8 0c             	shr    $0xc,%eax
   11371:	89 45 f0             	mov    %eax,-0x10(%ebp)
   11374:	eb 25                	jmp    1139b <_ZN4re3621PhysicalMemoryManager15set_region_usedEjj+0x4b>
   11376:	83 ec 0c             	sub    $0xc,%esp
   11379:	ff 75 f4             	push   -0xc(%ebp)
   1137c:	e8 d5 03 00 00       	call   11756 <_ZN4re3621PhysicalMemoryManager9set_frameEj>
   11381:	83 c4 10             	add    $0x10,%esp
   11384:	8b 83 14 17 00 00    	mov    0x1714(%ebx),%eax
   1138a:	83 c0 01             	add    $0x1,%eax
   1138d:	89 83 14 17 00 00    	mov    %eax,0x1714(%ebx)
   11393:	83 6d f0 01          	subl   $0x1,-0x10(%ebp)
   11397:	83 45 f4 01          	addl   $0x1,-0xc(%ebp)
   1139b:	83 7d f0 00          	cmpl   $0x0,-0x10(%ebp)
   1139f:	75 d5                	jne    11376 <_ZN4re3621PhysicalMemoryManager15set_region_usedEjj+0x26>
   113a1:	90                   	nop
   113a2:	90                   	nop
   113a3:	8b 5d fc             	mov    -0x4(%ebp),%ebx
   113a6:	c9                   	leave
   113a7:	c3                   	ret

000113a8 <_ZN4re3621PhysicalMemoryManager20get_first_free_frameEv>:
   113a8:	55                   	push   %ebp
   113a9:	89 e5                	mov    %esp,%ebp
   113ab:	53                   	push   %ebx
   113ac:	83 ec 10             	sub    $0x10,%esp
   113af:	e8 f3 fc ff ff       	call   110a7 <__x86.get_pc_thunk.ax>
   113b4:	05 48 dd 01 00       	add    $0x1dd48,%eax
   113b9:	c7 45 f8 00 00 00 00 	movl   $0x0,-0x8(%ebp)
   113c0:	eb 63                	jmp    11425 <_ZN4re3621PhysicalMemoryManager20get_first_free_frameEv+0x7d>
   113c2:	8b 90 0c 17 00 00    	mov    0x170c(%eax),%edx
   113c8:	8b 4d f8             	mov    -0x8(%ebp),%ecx
   113cb:	c1 e1 02             	shl    $0x2,%ecx
   113ce:	01 ca                	add    %ecx,%edx
   113d0:	8b 12                	mov    (%edx),%edx
   113d2:	83 fa ff             	cmp    $0xffffffff,%edx
   113d5:	74 4a                	je     11421 <_ZN4re3621PhysicalMemoryManager20get_first_free_frameEv+0x79>
   113d7:	c7 45 f4 00 00 00 00 	movl   $0x0,-0xc(%ebp)
   113de:	eb 3b                	jmp    1141b <_ZN4re3621PhysicalMemoryManager20get_first_free_frameEv+0x73>
   113e0:	8b 55 f4             	mov    -0xc(%ebp),%edx
   113e3:	bb 01 00 00 00       	mov    $0x1,%ebx
   113e8:	89 d1                	mov    %edx,%ecx
   113ea:	d3 e3                	shl    %cl,%ebx
   113ec:	89 da                	mov    %ebx,%edx
   113ee:	89 55 f0             	mov    %edx,-0x10(%ebp)
   113f1:	8b 90 0c 17 00 00    	mov    0x170c(%eax),%edx
   113f7:	8b 4d f8             	mov    -0x8(%ebp),%ecx
   113fa:	c1 e1 02             	shl    $0x2,%ecx
   113fd:	01 ca                	add    %ecx,%edx
   113ff:	8b 12                	mov    (%edx),%edx
   11401:	23 55 f0             	and    -0x10(%ebp),%edx
   11404:	85 d2                	test   %edx,%edx
   11406:	75 0f                	jne    11417 <_ZN4re3621PhysicalMemoryManager20get_first_free_frameEv+0x6f>
   11408:	8b 45 f8             	mov    -0x8(%ebp),%eax
   1140b:	c1 e0 05             	shl    $0x5,%eax
   1140e:	89 c2                	mov    %eax,%edx
   11410:	8b 45 f4             	mov    -0xc(%ebp),%eax
   11413:	01 d0                	add    %edx,%eax
   11415:	eb 21                	jmp    11438 <_ZN4re3621PhysicalMemoryManager20get_first_free_frameEv+0x90>
   11417:	83 45 f4 01          	addl   $0x1,-0xc(%ebp)
   1141b:	83 7d f4 1f          	cmpl   $0x1f,-0xc(%ebp)
   1141f:	7e bf                	jle    113e0 <_ZN4re3621PhysicalMemoryManager20get_first_free_frameEv+0x38>
   11421:	83 45 f8 01          	addl   $0x1,-0x8(%ebp)
   11425:	8b 90 10 17 00 00    	mov    0x1710(%eax),%edx
   1142b:	c1 ea 05             	shr    $0x5,%edx
   1142e:	39 55 f8             	cmp    %edx,-0x8(%ebp)
   11431:	72 8f                	jb     113c2 <_ZN4re3621PhysicalMemoryManager20get_first_free_frameEv+0x1a>
   11433:	b8 ff ff ff ff       	mov    $0xffffffff,%eax
   11438:	8b 5d fc             	mov    -0x4(%ebp),%ebx
   1143b:	c9                   	leave
   1143c:	c3                   	ret
   1143d:	90                   	nop

0001143e <_ZN4re3621PhysicalMemoryManager11alloc_frameEv>:
   1143e:	55                   	push   %ebp
   1143f:	89 e5                	mov    %esp,%ebp
   11441:	53                   	push   %ebx
   11442:	83 ec 14             	sub    $0x14,%esp
   11445:	e8 61 fc ff ff       	call   110ab <__x86.get_pc_thunk.bx>
   1144a:	81 c3 b2 dc 01 00    	add    $0x1dcb2,%ebx
   11450:	e8 c7 02 00 00       	call   1171c <_ZN4re3621PhysicalMemoryManager15get_free_memoryEv>
   11455:	85 c0                	test   %eax,%eax
   11457:	0f 94 c0             	sete   %al
   1145a:	84 c0                	test   %al,%al
   1145c:	74 07                	je     11465 <_ZN4re3621PhysicalMemoryManager11alloc_frameEv+0x27>
   1145e:	b8 00 00 00 00       	mov    $0x0,%eax
   11463:	eb 46                	jmp    114ab <_ZN4re3621PhysicalMemoryManager11alloc_frameEv+0x6d>
   11465:	e8 3e ff ff ff       	call   113a8 <_ZN4re3621PhysicalMemoryManager20get_first_free_frameEv>
   1146a:	89 45 f4             	mov    %eax,-0xc(%ebp)
   1146d:	83 7d f4 ff          	cmpl   $0xffffffff,-0xc(%ebp)
   11471:	75 07                	jne    1147a <_ZN4re3621PhysicalMemoryManager11alloc_frameEv+0x3c>
   11473:	b8 00 00 00 00       	mov    $0x0,%eax
   11478:	eb 31                	jmp    114ab <_ZN4re3621PhysicalMemoryManager11alloc_frameEv+0x6d>
   1147a:	83 ec 0c             	sub    $0xc,%esp
   1147d:	ff 75 f4             	push   -0xc(%ebp)
   11480:	e8 d1 02 00 00       	call   11756 <_ZN4re3621PhysicalMemoryManager9set_frameEj>
   11485:	83 c4 10             	add    $0x10,%esp
   11488:	8b 83 14 17 00 00    	mov    0x1714(%ebx),%eax
   1148e:	83 c0 01             	add    $0x1,%eax
   11491:	89 83 14 17 00 00    	mov    %eax,0x1714(%ebx)
   11497:	8b 93 18 17 00 00    	mov    0x1718(%ebx),%edx
   1149d:	8b 45 f4             	mov    -0xc(%ebp),%eax
   114a0:	01 d0                	add    %edx,%eax
   114a2:	c6 00 01             	movb   $0x1,(%eax)
   114a5:	8b 45 f4             	mov    -0xc(%ebp),%eax
   114a8:	c1 e0 0c             	shl    $0xc,%eax
   114ab:	8b 5d fc             	mov    -0x4(%ebp),%ebx
   114ae:	c9                   	leave
   114af:	c3                   	ret

000114b0 <_ZN4re3621PhysicalMemoryManager15get_free_blocksEj>:
   114b0:	55                   	push   %ebp
   114b1:	89 e5                	mov    %esp,%ebp
   114b3:	53                   	push   %ebx
   114b4:	83 ec 14             	sub    $0x14,%esp
   114b7:	e8 ef fb ff ff       	call   110ab <__x86.get_pc_thunk.bx>
   114bc:	81 c3 40 dc 01 00    	add    $0x1dc40,%ebx
   114c2:	83 7d 08 00          	cmpl   $0x0,0x8(%ebp)
   114c6:	75 07                	jne    114cf <_ZN4re3621PhysicalMemoryManager15get_free_blocksEj+0x1f>
   114c8:	b8 ff ff ff ff       	mov    $0xffffffff,%eax
   114cd:	eb 71                	jmp    11540 <_ZN4re3621PhysicalMemoryManager15get_free_blocksEj+0x90>
   114cf:	83 7d 08 01          	cmpl   $0x1,0x8(%ebp)
   114d3:	75 07                	jne    114dc <_ZN4re3621PhysicalMemoryManager15get_free_blocksEj+0x2c>
   114d5:	e8 ce fe ff ff       	call   113a8 <_ZN4re3621PhysicalMemoryManager20get_first_free_frameEv>
   114da:	eb 64                	jmp    11540 <_ZN4re3621PhysicalMemoryManager15get_free_blocksEj+0x90>
   114dc:	c7 45 f4 00 00 00 00 	movl   $0x0,-0xc(%ebp)
   114e3:	c7 45 f0 ff ff ff ff 	movl   $0xffffffff,-0x10(%ebp)
   114ea:	c7 45 ec 00 00 00 00 	movl   $0x0,-0x14(%ebp)
   114f1:	eb 3d                	jmp    11530 <_ZN4re3621PhysicalMemoryManager15get_free_blocksEj+0x80>
   114f3:	83 ec 0c             	sub    $0xc,%esp
   114f6:	ff 75 ec             	push   -0x14(%ebp)
   114f9:	e8 f2 02 00 00       	call   117f0 <_ZN4re3621PhysicalMemoryManager10test_frameEj>
   114fe:	83 c4 10             	add    $0x10,%esp
   11501:	83 f0 01             	xor    $0x1,%eax
   11504:	84 c0                	test   %al,%al
   11506:	74 1d                	je     11525 <_ZN4re3621PhysicalMemoryManager15get_free_blocksEj+0x75>
   11508:	83 7d f4 00          	cmpl   $0x0,-0xc(%ebp)
   1150c:	75 06                	jne    11514 <_ZN4re3621PhysicalMemoryManager15get_free_blocksEj+0x64>
   1150e:	8b 45 ec             	mov    -0x14(%ebp),%eax
   11511:	89 45 f0             	mov    %eax,-0x10(%ebp)
   11514:	83 45 f4 01          	addl   $0x1,-0xc(%ebp)
   11518:	8b 45 f4             	mov    -0xc(%ebp),%eax
   1151b:	3b 45 08             	cmp    0x8(%ebp),%eax
   1151e:	75 0c                	jne    1152c <_ZN4re3621PhysicalMemoryManager15get_free_blocksEj+0x7c>
   11520:	8b 45 f0             	mov    -0x10(%ebp),%eax
   11523:	eb 1b                	jmp    11540 <_ZN4re3621PhysicalMemoryManager15get_free_blocksEj+0x90>
   11525:	c7 45 f4 00 00 00 00 	movl   $0x0,-0xc(%ebp)
   1152c:	83 45 ec 01          	addl   $0x1,-0x14(%ebp)
   11530:	8b 83 10 17 00 00    	mov    0x1710(%ebx),%eax
   11536:	39 45 ec             	cmp    %eax,-0x14(%ebp)
   11539:	72 b8                	jb     114f3 <_ZN4re3621PhysicalMemoryManager15get_free_blocksEj+0x43>
   1153b:	b8 ff ff ff ff       	mov    $0xffffffff,%eax
   11540:	8b 5d fc             	mov    -0x4(%ebp),%ebx
   11543:	c9                   	leave
   11544:	c3                   	ret
   11545:	90                   	nop

00011546 <_ZN4re3621PhysicalMemoryManager12alloc_blocksEj>:
   11546:	55                   	push   %ebp
   11547:	89 e5                	mov    %esp,%ebp
   11549:	53                   	push   %ebx
   1154a:	83 ec 14             	sub    $0x14,%esp
   1154d:	e8 59 fb ff ff       	call   110ab <__x86.get_pc_thunk.bx>
   11552:	81 c3 aa db 01 00    	add    $0x1dbaa,%ebx
   11558:	e8 bf 01 00 00       	call   1171c <_ZN4re3621PhysicalMemoryManager15get_free_memoryEv>
   1155d:	8b 55 08             	mov    0x8(%ebp),%edx
   11560:	c1 e2 0c             	shl    $0xc,%edx
   11563:	39 d0                	cmp    %edx,%eax
   11565:	0f 92 c0             	setb   %al
   11568:	84 c0                	test   %al,%al
   1156a:	74 07                	je     11573 <_ZN4re3621PhysicalMemoryManager12alloc_blocksEj+0x2d>
   1156c:	b8 00 00 00 00       	mov    $0x0,%eax
   11571:	eb 5c                	jmp    115cf <_ZN4re3621PhysicalMemoryManager12alloc_blocksEj+0x89>
   11573:	83 ec 0c             	sub    $0xc,%esp
   11576:	ff 75 08             	push   0x8(%ebp)
   11579:	e8 32 ff ff ff       	call   114b0 <_ZN4re3621PhysicalMemoryManager15get_free_blocksEj>
   1157e:	83 c4 10             	add    $0x10,%esp
   11581:	89 45 f0             	mov    %eax,-0x10(%ebp)
   11584:	83 7d f0 ff          	cmpl   $0xffffffff,-0x10(%ebp)
   11588:	75 07                	jne    11591 <_ZN4re3621PhysicalMemoryManager12alloc_blocksEj+0x4b>
   1158a:	b8 00 00 00 00       	mov    $0x0,%eax
   1158f:	eb 3e                	jmp    115cf <_ZN4re3621PhysicalMemoryManager12alloc_blocksEj+0x89>
   11591:	c7 45 f4 00 00 00 00 	movl   $0x0,-0xc(%ebp)
   11598:	eb 27                	jmp    115c1 <_ZN4re3621PhysicalMemoryManager12alloc_blocksEj+0x7b>
   1159a:	8b 55 f0             	mov    -0x10(%ebp),%edx
   1159d:	8b 45 f4             	mov    -0xc(%ebp),%eax
   115a0:	01 d0                	add    %edx,%eax
   115a2:	83 ec 0c             	sub    $0xc,%esp
   115a5:	50                   	push   %eax
   115a6:	e8 ab 01 00 00       	call   11756 <_ZN4re3621PhysicalMemoryManager9set_frameEj>
   115ab:	83 c4 10             	add    $0x10,%esp
   115ae:	8b 83 14 17 00 00    	mov    0x1714(%ebx),%eax
   115b4:	83 c0 01             	add    $0x1,%eax
   115b7:	89 83 14 17 00 00    	mov    %eax,0x1714(%ebx)
   115bd:	83 45 f4 01          	addl   $0x1,-0xc(%ebp)
   115c1:	8b 45 f4             	mov    -0xc(%ebp),%eax
   115c4:	3b 45 08             	cmp    0x8(%ebp),%eax
   115c7:	72 d1                	jb     1159a <_ZN4re3621PhysicalMemoryManager12alloc_blocksEj+0x54>
   115c9:	8b 45 f0             	mov    -0x10(%ebp),%eax
   115cc:	c1 e0 0c             	shl    $0xc,%eax
   115cf:	8b 5d fc             	mov    -0x4(%ebp),%ebx
   115d2:	c9                   	leave
   115d3:	c3                   	ret

000115d4 <_ZN4re3621PhysicalMemoryManager10free_frameEPv>:
   115d4:	55                   	push   %ebp
   115d5:	89 e5                	mov    %esp,%ebp
   115d7:	53                   	push   %ebx
   115d8:	83 ec 14             	sub    $0x14,%esp
   115db:	e8 cb fa ff ff       	call   110ab <__x86.get_pc_thunk.bx>
   115e0:	81 c3 1c db 01 00    	add    $0x1db1c,%ebx
   115e6:	8b 45 08             	mov    0x8(%ebp),%eax
   115e9:	89 45 f4             	mov    %eax,-0xc(%ebp)
   115ec:	8b 45 f4             	mov    -0xc(%ebp),%eax
   115ef:	c1 e8 0c             	shr    $0xc,%eax
   115f2:	89 45 f0             	mov    %eax,-0x10(%ebp)
   115f5:	8b 83 10 17 00 00    	mov    0x1710(%ebx),%eax
   115fb:	39 45 f0             	cmp    %eax,-0x10(%ebp)
   115fe:	73 54                	jae    11654 <_ZN4re3621PhysicalMemoryManager10free_frameEPv+0x80>
   11600:	8b 93 18 17 00 00    	mov    0x1718(%ebx),%edx
   11606:	8b 45 f0             	mov    -0x10(%ebp),%eax
   11609:	01 d0                	add    %edx,%eax
   1160b:	0f b6 00             	movzbl (%eax),%eax
   1160e:	3c 01                	cmp    $0x1,%al
   11610:	76 15                	jbe    11627 <_ZN4re3621PhysicalMemoryManager10free_frameEPv+0x53>
   11612:	8b 93 18 17 00 00    	mov    0x1718(%ebx),%edx
   11618:	8b 45 f0             	mov    -0x10(%ebp),%eax
   1161b:	01 d0                	add    %edx,%eax
   1161d:	0f b6 10             	movzbl (%eax),%edx
   11620:	83 ea 01             	sub    $0x1,%edx
   11623:	88 10                	mov    %dl,(%eax)
   11625:	eb 2e                	jmp    11655 <_ZN4re3621PhysicalMemoryManager10free_frameEPv+0x81>
   11627:	8b 93 18 17 00 00    	mov    0x1718(%ebx),%edx
   1162d:	8b 45 f0             	mov    -0x10(%ebp),%eax
   11630:	01 d0                	add    %edx,%eax
   11632:	c6 00 00             	movb   $0x0,(%eax)
   11635:	83 ec 0c             	sub    $0xc,%esp
   11638:	ff 75 f0             	push   -0x10(%ebp)
   1163b:	e8 62 01 00 00       	call   117a2 <_ZN4re3621PhysicalMemoryManager11clear_frameEj>
   11640:	83 c4 10             	add    $0x10,%esp
   11643:	8b 83 14 17 00 00    	mov    0x1714(%ebx),%eax
   11649:	83 e8 01             	sub    $0x1,%eax
   1164c:	89 83 14 17 00 00    	mov    %eax,0x1714(%ebx)
   11652:	eb 01                	jmp    11655 <_ZN4re3621PhysicalMemoryManager10free_frameEPv+0x81>
   11654:	90                   	nop
   11655:	8b 5d fc             	mov    -0x4(%ebp),%ebx
   11658:	c9                   	leave
   11659:	c3                   	ret

0001165a <_ZN4re3621PhysicalMemoryManager7inc_refEj>:
   1165a:	55                   	push   %ebp
   1165b:	89 e5                	mov    %esp,%ebp
   1165d:	83 ec 10             	sub    $0x10,%esp
   11660:	e8 42 fa ff ff       	call   110a7 <__x86.get_pc_thunk.ax>
   11665:	05 97 da 01 00       	add    $0x1da97,%eax
   1166a:	8b 55 08             	mov    0x8(%ebp),%edx
   1166d:	c1 ea 0c             	shr    $0xc,%edx
   11670:	89 55 fc             	mov    %edx,-0x4(%ebp)
   11673:	8b 90 10 17 00 00    	mov    0x1710(%eax),%edx
   11679:	39 55 fc             	cmp    %edx,-0x4(%ebp)
   1167c:	73 26                	jae    116a4 <_ZN4re3621PhysicalMemoryManager7inc_refEj+0x4a>
   1167e:	8b 88 18 17 00 00    	mov    0x1718(%eax),%ecx
   11684:	8b 55 fc             	mov    -0x4(%ebp),%edx
   11687:	01 ca                	add    %ecx,%edx
   11689:	0f b6 12             	movzbl (%edx),%edx
   1168c:	80 fa ff             	cmp    $0xff,%dl
   1168f:	74 13                	je     116a4 <_ZN4re3621PhysicalMemoryManager7inc_refEj+0x4a>
   11691:	8b 90 18 17 00 00    	mov    0x1718(%eax),%edx
   11697:	8b 45 fc             	mov    -0x4(%ebp),%eax
   1169a:	01 d0                	add    %edx,%eax
   1169c:	0f b6 10             	movzbl (%eax),%edx
   1169f:	83 c2 01             	add    $0x1,%edx
   116a2:	88 10                	mov    %dl,(%eax)
   116a4:	90                   	nop
   116a5:	c9                   	leave
   116a6:	c3                   	ret
   116a7:	90                   	nop

000116a8 <_ZN4re3621PhysicalMemoryManager7dec_refEj>:
   116a8:	55                   	push   %ebp
   116a9:	89 e5                	mov    %esp,%ebp
   116ab:	83 ec 18             	sub    $0x18,%esp
   116ae:	e8 f4 f9 ff ff       	call   110a7 <__x86.get_pc_thunk.ax>
   116b3:	05 49 da 01 00       	add    $0x1da49,%eax
   116b8:	8b 55 08             	mov    0x8(%ebp),%edx
   116bb:	c1 ea 0c             	shr    $0xc,%edx
   116be:	89 55 f4             	mov    %edx,-0xc(%ebp)
   116c1:	8b 80 10 17 00 00    	mov    0x1710(%eax),%eax
   116c7:	39 45 f4             	cmp    %eax,-0xc(%ebp)
   116ca:	73 11                	jae    116dd <_ZN4re3621PhysicalMemoryManager7dec_refEj+0x35>
   116cc:	8b 45 08             	mov    0x8(%ebp),%eax
   116cf:	83 ec 0c             	sub    $0xc,%esp
   116d2:	50                   	push   %eax
   116d3:	e8 fc fe ff ff       	call   115d4 <_ZN4re3621PhysicalMemoryManager10free_frameEPv>
   116d8:	83 c4 10             	add    $0x10,%esp
   116db:	eb 01                	jmp    116de <_ZN4re3621PhysicalMemoryManager7dec_refEj+0x36>
   116dd:	90                   	nop
   116de:	c9                   	leave
   116df:	c3                   	ret

000116e0 <_ZN4re3621PhysicalMemoryManager12get_refcountEj>:
   116e0:	55                   	push   %ebp
   116e1:	89 e5                	mov    %esp,%ebp
   116e3:	83 ec 10             	sub    $0x10,%esp
   116e6:	e8 bc f9 ff ff       	call   110a7 <__x86.get_pc_thunk.ax>
   116eb:	05 11 da 01 00       	add    $0x1da11,%eax
   116f0:	8b 55 08             	mov    0x8(%ebp),%edx
   116f3:	c1 ea 0c             	shr    $0xc,%edx
   116f6:	89 55 fc             	mov    %edx,-0x4(%ebp)
   116f9:	8b 90 10 17 00 00    	mov    0x1710(%eax),%edx
   116ff:	39 55 fc             	cmp    %edx,-0x4(%ebp)
   11702:	72 07                	jb     1170b <_ZN4re3621PhysicalMemoryManager12get_refcountEj+0x2b>
   11704:	b8 00 00 00 00       	mov    $0x0,%eax
   11709:	eb 0e                	jmp    11719 <_ZN4re3621PhysicalMemoryManager12get_refcountEj+0x39>
   1170b:	8b 90 18 17 00 00    	mov    0x1718(%eax),%edx
   11711:	8b 45 fc             	mov    -0x4(%ebp),%eax
   11714:	01 d0                	add    %edx,%eax
   11716:	0f b6 00             	movzbl (%eax),%eax
   11719:	c9                   	leave
   1171a:	c3                   	ret
   1171b:	90                   	nop

0001171c <_ZN4re3621PhysicalMemoryManager15get_free_memoryEv>:
   1171c:	55                   	push   %ebp
   1171d:	89 e5                	mov    %esp,%ebp
   1171f:	e8 83 f9 ff ff       	call   110a7 <__x86.get_pc_thunk.ax>
   11724:	05 d8 d9 01 00       	add    $0x1d9d8,%eax
   11729:	8b 90 10 17 00 00    	mov    0x1710(%eax),%edx
   1172f:	8b 80 14 17 00 00    	mov    0x1714(%eax),%eax
   11735:	29 c2                	sub    %eax,%edx
   11737:	89 d0                	mov    %edx,%eax
   11739:	c1 e0 0c             	shl    $0xc,%eax
   1173c:	5d                   	pop    %ebp
   1173d:	c3                   	ret

0001173e <_ZN4re3621PhysicalMemoryManager15get_used_memoryEv>:
   1173e:	55                   	push   %ebp
   1173f:	89 e5                	mov    %esp,%ebp
   11741:	e8 61 f9 ff ff       	call   110a7 <__x86.get_pc_thunk.ax>
   11746:	05 b6 d9 01 00       	add    $0x1d9b6,%eax
   1174b:	8b 80 14 17 00 00    	mov    0x1714(%eax),%eax
   11751:	c1 e0 0c             	shl    $0xc,%eax
   11754:	5d                   	pop    %ebp
   11755:	c3                   	ret

00011756 <_ZN4re3621PhysicalMemoryManager9set_frameEj>:
   11756:	55                   	push   %ebp
   11757:	89 e5                	mov    %esp,%ebp
   11759:	56                   	push   %esi
   1175a:	53                   	push   %ebx
   1175b:	e8 47 f9 ff ff       	call   110a7 <__x86.get_pc_thunk.ax>
   11760:	05 9c d9 01 00       	add    $0x1d99c,%eax
   11765:	8b 98 0c 17 00 00    	mov    0x170c(%eax),%ebx
   1176b:	8b 55 08             	mov    0x8(%ebp),%edx
   1176e:	c1 ea 05             	shr    $0x5,%edx
   11771:	8d 0c 95 00 00 00 00 	lea    0x0(,%edx,4),%ecx
   11778:	01 d9                	add    %ebx,%ecx
   1177a:	8b 19                	mov    (%ecx),%ebx
   1177c:	8b 4d 08             	mov    0x8(%ebp),%ecx
   1177f:	83 e1 1f             	and    $0x1f,%ecx
   11782:	be 01 00 00 00       	mov    $0x1,%esi
   11787:	d3 e6                	shl    %cl,%esi
   11789:	89 f1                	mov    %esi,%ecx
   1178b:	8b 80 0c 17 00 00    	mov    0x170c(%eax),%eax
   11791:	c1 e2 02             	shl    $0x2,%edx
   11794:	01 d0                	add    %edx,%eax
   11796:	09 cb                	or     %ecx,%ebx
   11798:	89 da                	mov    %ebx,%edx
   1179a:	89 10                	mov    %edx,(%eax)
   1179c:	90                   	nop
   1179d:	5b                   	pop    %ebx
   1179e:	5e                   	pop    %esi
   1179f:	5d                   	pop    %ebp
   117a0:	c3                   	ret
   117a1:	90                   	nop

000117a2 <_ZN4re3621PhysicalMemoryManager11clear_frameEj>:
   117a2:	55                   	push   %ebp
   117a3:	89 e5                	mov    %esp,%ebp
   117a5:	56                   	push   %esi
   117a6:	53                   	push   %ebx
   117a7:	e8 fb f8 ff ff       	call   110a7 <__x86.get_pc_thunk.ax>
   117ac:	05 50 d9 01 00       	add    $0x1d950,%eax
   117b1:	8b 98 0c 17 00 00    	mov    0x170c(%eax),%ebx
   117b7:	8b 55 08             	mov    0x8(%ebp),%edx
   117ba:	c1 ea 05             	shr    $0x5,%edx
   117bd:	8d 0c 95 00 00 00 00 	lea    0x0(,%edx,4),%ecx
   117c4:	01 d9                	add    %ebx,%ecx
   117c6:	8b 19                	mov    (%ecx),%ebx
   117c8:	8b 4d 08             	mov    0x8(%ebp),%ecx
   117cb:	83 e1 1f             	and    $0x1f,%ecx
   117ce:	be 01 00 00 00       	mov    $0x1,%esi
   117d3:	d3 e6                	shl    %cl,%esi
   117d5:	89 f1                	mov    %esi,%ecx
   117d7:	f7 d1                	not    %ecx
   117d9:	8b 80 0c 17 00 00    	mov    0x170c(%eax),%eax
   117df:	c1 e2 02             	shl    $0x2,%edx
   117e2:	01 d0                	add    %edx,%eax
   117e4:	21 cb                	and    %ecx,%ebx
   117e6:	89 da                	mov    %ebx,%edx
   117e8:	89 10                	mov    %edx,(%eax)
   117ea:	90                   	nop
   117eb:	5b                   	pop    %ebx
   117ec:	5e                   	pop    %esi
   117ed:	5d                   	pop    %ebp
   117ee:	c3                   	ret
   117ef:	90                   	nop

000117f0 <_ZN4re3621PhysicalMemoryManager10test_frameEj>:
   117f0:	55                   	push   %ebp
   117f1:	89 e5                	mov    %esp,%ebp
   117f3:	53                   	push   %ebx
   117f4:	e8 ae f8 ff ff       	call   110a7 <__x86.get_pc_thunk.ax>
   117f9:	05 03 d9 01 00       	add    $0x1d903,%eax
   117fe:	8b 80 0c 17 00 00    	mov    0x170c(%eax),%eax
   11804:	8b 55 08             	mov    0x8(%ebp),%edx
   11807:	c1 ea 05             	shr    $0x5,%edx
   1180a:	c1 e2 02             	shl    $0x2,%edx
   1180d:	01 d0                	add    %edx,%eax
   1180f:	8b 00                	mov    (%eax),%eax
   11811:	8b 55 08             	mov    0x8(%ebp),%edx
   11814:	83 e2 1f             	and    $0x1f,%edx
   11817:	bb 01 00 00 00       	mov    $0x1,%ebx
   1181c:	89 d1                	mov    %edx,%ecx
   1181e:	d3 e3                	shl    %cl,%ebx
   11820:	89 da                	mov    %ebx,%edx
   11822:	21 d0                	and    %edx,%eax
   11824:	85 c0                	test   %eax,%eax
   11826:	0f 95 c0             	setne  %al
   11829:	8b 5d fc             	mov    -0x4(%ebp),%ebx
   1182c:	c9                   	leave
   1182d:	c3                   	ret

0001182e <_ZN4re3612kmalloc_initEv>:
   1182e:	55                   	push   %ebp
   1182f:	89 e5                	mov    %esp,%ebp
   11831:	53                   	push   %ebx
   11832:	83 ec 04             	sub    $0x4,%esp
   11835:	e8 71 f8 ff ff       	call   110ab <__x86.get_pc_thunk.bx>
   1183a:	81 c3 c2 d8 01 00    	add    $0x1d8c2,%ebx
   11840:	e8 f9 fb ff ff       	call   1143e <_ZN4re3621PhysicalMemoryManager11alloc_frameEv>
   11845:	89 83 1c 17 00 00    	mov    %eax,0x171c(%ebx)
   1184b:	8b 83 1c 17 00 00    	mov    0x171c(%ebx),%eax
   11851:	85 c0                	test   %eax,%eax
   11853:	74 25                	je     1187a <_ZN4re3612kmalloc_initEv+0x4c>
   11855:	8b 83 1c 17 00 00    	mov    0x171c(%ebx),%eax
   1185b:	c7 00 00 10 00 00    	movl   $0x1000,(%eax)
   11861:	8b 83 1c 17 00 00    	mov    0x171c(%ebx),%eax
   11867:	c6 40 04 01          	movb   $0x1,0x4(%eax)
   1186b:	8b 83 1c 17 00 00    	mov    0x171c(%ebx),%eax
   11871:	c7 40 08 00 00 00 00 	movl   $0x0,0x8(%eax)
   11878:	eb 01                	jmp    1187b <_ZN4re3612kmalloc_initEv+0x4d>
   1187a:	90                   	nop
   1187b:	8b 5d fc             	mov    -0x4(%ebp),%ebx
   1187e:	c9                   	leave
   1187f:	c3                   	ret

00011880 <_ZN4re36L11split_blockEPNS_11MemoryBlockEj>:
   11880:	55                   	push   %ebp
   11881:	89 e5                	mov    %esp,%ebp
   11883:	83 ec 10             	sub    $0x10,%esp
   11886:	e8 1c f8 ff ff       	call   110a7 <__x86.get_pc_thunk.ax>
   1188b:	05 71 d8 01 00       	add    $0x1d871,%eax
   11890:	8b 45 08             	mov    0x8(%ebp),%eax
   11893:	8b 00                	mov    (%eax),%eax
   11895:	8b 55 0c             	mov    0xc(%ebp),%edx
   11898:	83 c2 2c             	add    $0x2c,%edx
   1189b:	39 c2                	cmp    %eax,%edx
   1189d:	73 40                	jae    118df <_ZN4re36L11split_blockEPNS_11MemoryBlockEj+0x5f>
   1189f:	8b 55 08             	mov    0x8(%ebp),%edx
   118a2:	8b 45 0c             	mov    0xc(%ebp),%eax
   118a5:	01 d0                	add    %edx,%eax
   118a7:	89 45 fc             	mov    %eax,-0x4(%ebp)
   118aa:	8b 45 08             	mov    0x8(%ebp),%eax
   118ad:	8b 00                	mov    (%eax),%eax
   118af:	2b 45 0c             	sub    0xc(%ebp),%eax
   118b2:	89 c2                	mov    %eax,%edx
   118b4:	8b 45 fc             	mov    -0x4(%ebp),%eax
   118b7:	89 10                	mov    %edx,(%eax)
   118b9:	8b 45 fc             	mov    -0x4(%ebp),%eax
   118bc:	c6 40 04 01          	movb   $0x1,0x4(%eax)
   118c0:	8b 45 08             	mov    0x8(%ebp),%eax
   118c3:	8b 50 08             	mov    0x8(%eax),%edx
   118c6:	8b 45 fc             	mov    -0x4(%ebp),%eax
   118c9:	89 50 08             	mov    %edx,0x8(%eax)
   118cc:	8b 45 08             	mov    0x8(%ebp),%eax
   118cf:	8b 55 0c             	mov    0xc(%ebp),%edx
   118d2:	89 10                	mov    %edx,(%eax)
   118d4:	8b 45 08             	mov    0x8(%ebp),%eax
   118d7:	8b 55 fc             	mov    -0x4(%ebp),%edx
   118da:	89 50 08             	mov    %edx,0x8(%eax)
   118dd:	eb 01                	jmp    118e0 <_ZN4re36L11split_blockEPNS_11MemoryBlockEj+0x60>
   118df:	90                   	nop
   118e0:	c9                   	leave
   118e1:	c3                   	ret

000118e2 <_ZN4re367kmallocEj>:
   118e2:	55                   	push   %ebp
   118e3:	89 e5                	mov    %esp,%ebp
   118e5:	53                   	push   %ebx
   118e6:	83 ec 24             	sub    $0x24,%esp
   118e9:	e8 b9 f7 ff ff       	call   110a7 <__x86.get_pc_thunk.ax>
   118ee:	05 0e d8 01 00       	add    $0x1d80e,%eax
   118f3:	83 7d 08 00          	cmpl   $0x0,0x8(%ebp)
   118f7:	75 0a                	jne    11903 <_ZN4re367kmallocEj+0x21>
   118f9:	b8 00 00 00 00       	mov    $0x0,%eax
   118fe:	e9 f9 00 00 00       	jmp    119fc <_ZN4re367kmallocEj+0x11a>
   11903:	8b 55 08             	mov    0x8(%ebp),%edx
   11906:	83 c2 0c             	add    $0xc,%edx
   11909:	89 55 f4             	mov    %edx,-0xc(%ebp)
   1190c:	8b 55 f4             	mov    -0xc(%ebp),%edx
   1190f:	83 e2 07             	and    $0x7,%edx
   11912:	85 d2                	test   %edx,%edx
   11914:	74 0c                	je     11922 <_ZN4re367kmallocEj+0x40>
   11916:	8b 55 f4             	mov    -0xc(%ebp),%edx
   11919:	83 e2 f8             	and    $0xfffffff8,%edx
   1191c:	83 c2 08             	add    $0x8,%edx
   1191f:	89 55 f4             	mov    %edx,-0xc(%ebp)
   11922:	8b 90 1c 17 00 00    	mov    0x171c(%eax),%edx
   11928:	89 55 f0             	mov    %edx,-0x10(%ebp)
   1192b:	c7 45 ec 00 00 00 00 	movl   $0x0,-0x14(%ebp)
   11932:	eb 44                	jmp    11978 <_ZN4re367kmallocEj+0x96>
   11934:	8b 55 f0             	mov    -0x10(%ebp),%edx
   11937:	0f b6 52 04          	movzbl 0x4(%edx),%edx
   1193b:	84 d2                	test   %dl,%dl
   1193d:	74 2a                	je     11969 <_ZN4re367kmallocEj+0x87>
   1193f:	8b 55 f0             	mov    -0x10(%ebp),%edx
   11942:	8b 12                	mov    (%edx),%edx
   11944:	3b 55 f4             	cmp    -0xc(%ebp),%edx
   11947:	72 20                	jb     11969 <_ZN4re367kmallocEj+0x87>
   11949:	8b 45 f0             	mov    -0x10(%ebp),%eax
   1194c:	c6 40 04 00          	movb   $0x0,0x4(%eax)
   11950:	ff 75 f4             	push   -0xc(%ebp)
   11953:	ff 75 f0             	push   -0x10(%ebp)
   11956:	e8 25 ff ff ff       	call   11880 <_ZN4re36L11split_blockEPNS_11MemoryBlockEj>
   1195b:	83 c4 08             	add    $0x8,%esp
   1195e:	8b 45 f0             	mov    -0x10(%ebp),%eax
   11961:	83 c0 0c             	add    $0xc,%eax
   11964:	e9 93 00 00 00       	jmp    119fc <_ZN4re367kmallocEj+0x11a>
   11969:	8b 55 f0             	mov    -0x10(%ebp),%edx
   1196c:	89 55 ec             	mov    %edx,-0x14(%ebp)
   1196f:	8b 55 f0             	mov    -0x10(%ebp),%edx
   11972:	8b 52 08             	mov    0x8(%edx),%edx
   11975:	89 55 f0             	mov    %edx,-0x10(%ebp)
   11978:	83 7d f0 00          	cmpl   $0x0,-0x10(%ebp)
   1197c:	75 b6                	jne    11934 <_ZN4re367kmallocEj+0x52>
   1197e:	8b 55 f4             	mov    -0xc(%ebp),%edx
   11981:	c1 ea 0c             	shr    $0xc,%edx
   11984:	89 55 e8             	mov    %edx,-0x18(%ebp)
   11987:	8b 55 f4             	mov    -0xc(%ebp),%edx
   1198a:	81 e2 ff 0f 00 00    	and    $0xfff,%edx
   11990:	85 d2                	test   %edx,%edx
   11992:	74 04                	je     11998 <_ZN4re367kmallocEj+0xb6>
   11994:	83 45 e8 01          	addl   $0x1,-0x18(%ebp)
   11998:	83 ec 0c             	sub    $0xc,%esp
   1199b:	ff 75 e8             	push   -0x18(%ebp)
   1199e:	89 c3                	mov    %eax,%ebx
   119a0:	e8 a1 fb ff ff       	call   11546 <_ZN4re3621PhysicalMemoryManager12alloc_blocksEj>
   119a5:	83 c4 10             	add    $0x10,%esp
   119a8:	89 45 e4             	mov    %eax,-0x1c(%ebp)
   119ab:	83 7d e4 00          	cmpl   $0x0,-0x1c(%ebp)
   119af:	75 07                	jne    119b8 <_ZN4re367kmallocEj+0xd6>
   119b1:	b8 00 00 00 00       	mov    $0x0,%eax
   119b6:	eb 44                	jmp    119fc <_ZN4re367kmallocEj+0x11a>
   119b8:	8b 45 e8             	mov    -0x18(%ebp),%eax
   119bb:	c1 e0 0c             	shl    $0xc,%eax
   119be:	89 c2                	mov    %eax,%edx
   119c0:	8b 45 e4             	mov    -0x1c(%ebp),%eax
   119c3:	89 10                	mov    %edx,(%eax)
   119c5:	8b 45 e4             	mov    -0x1c(%ebp),%eax
   119c8:	c6 40 04 00          	movb   $0x0,0x4(%eax)
   119cc:	8b 45 e4             	mov    -0x1c(%ebp),%eax
   119cf:	c7 40 08 00 00 00 00 	movl   $0x0,0x8(%eax)
   119d6:	83 7d ec 00          	cmpl   $0x0,-0x14(%ebp)
   119da:	74 09                	je     119e5 <_ZN4re367kmallocEj+0x103>
   119dc:	8b 45 ec             	mov    -0x14(%ebp),%eax
   119df:	8b 55 e4             	mov    -0x1c(%ebp),%edx
   119e2:	89 50 08             	mov    %edx,0x8(%eax)
   119e5:	83 ec 08             	sub    $0x8,%esp
   119e8:	ff 75 f4             	push   -0xc(%ebp)
   119eb:	ff 75 e4             	push   -0x1c(%ebp)
   119ee:	e8 8d fe ff ff       	call   11880 <_ZN4re36L11split_blockEPNS_11MemoryBlockEj>
   119f3:	83 c4 10             	add    $0x10,%esp
   119f6:	8b 45 e4             	mov    -0x1c(%ebp),%eax
   119f9:	83 c0 0c             	add    $0xc,%eax
   119fc:	8b 5d fc             	mov    -0x4(%ebp),%ebx
   119ff:	c9                   	leave
   11a00:	c3                   	ret

00011a01 <_ZN4re365kfreeEPv>:
   11a01:	55                   	push   %ebp
   11a02:	89 e5                	mov    %esp,%ebp
   11a04:	83 ec 10             	sub    $0x10,%esp
   11a07:	e8 9b f6 ff ff       	call   110a7 <__x86.get_pc_thunk.ax>
   11a0c:	05 f0 d6 01 00       	add    $0x1d6f0,%eax
   11a11:	83 7d 08 00          	cmpl   $0x0,0x8(%ebp)
   11a15:	74 4d                	je     11a64 <_ZN4re365kfreeEPv+0x63>
   11a17:	8b 45 08             	mov    0x8(%ebp),%eax
   11a1a:	83 e8 0c             	sub    $0xc,%eax
   11a1d:	89 45 fc             	mov    %eax,-0x4(%ebp)
   11a20:	8b 45 fc             	mov    -0x4(%ebp),%eax
   11a23:	c6 40 04 01          	movb   $0x1,0x4(%eax)
   11a27:	8b 45 fc             	mov    -0x4(%ebp),%eax
   11a2a:	8b 40 08             	mov    0x8(%eax),%eax
   11a2d:	85 c0                	test   %eax,%eax
   11a2f:	74 34                	je     11a65 <_ZN4re365kfreeEPv+0x64>
   11a31:	8b 45 fc             	mov    -0x4(%ebp),%eax
   11a34:	8b 40 08             	mov    0x8(%eax),%eax
   11a37:	0f b6 40 04          	movzbl 0x4(%eax),%eax
   11a3b:	84 c0                	test   %al,%al
   11a3d:	74 26                	je     11a65 <_ZN4re365kfreeEPv+0x64>
   11a3f:	8b 45 fc             	mov    -0x4(%ebp),%eax
   11a42:	8b 10                	mov    (%eax),%edx
   11a44:	8b 45 fc             	mov    -0x4(%ebp),%eax
   11a47:	8b 40 08             	mov    0x8(%eax),%eax
   11a4a:	8b 00                	mov    (%eax),%eax
   11a4c:	01 c2                	add    %eax,%edx
   11a4e:	8b 45 fc             	mov    -0x4(%ebp),%eax
   11a51:	89 10                	mov    %edx,(%eax)
   11a53:	8b 45 fc             	mov    -0x4(%ebp),%eax
   11a56:	8b 40 08             	mov    0x8(%eax),%eax
   11a59:	8b 50 08             	mov    0x8(%eax),%edx
   11a5c:	8b 45 fc             	mov    -0x4(%ebp),%eax
   11a5f:	89 50 08             	mov    %edx,0x8(%eax)
   11a62:	eb 01                	jmp    11a65 <_ZN4re365kfreeEPv+0x64>
   11a64:	90                   	nop
   11a65:	c9                   	leave
   11a66:	c3                   	ret

00011a67 <_Znwj>:
   11a67:	55                   	push   %ebp
   11a68:	89 e5                	mov    %esp,%ebp
   11a6a:	83 ec 08             	sub    $0x8,%esp
   11a6d:	e8 35 f6 ff ff       	call   110a7 <__x86.get_pc_thunk.ax>
   11a72:	05 8a d6 01 00       	add    $0x1d68a,%eax
   11a77:	83 ec 0c             	sub    $0xc,%esp
   11a7a:	ff 75 08             	push   0x8(%ebp)
   11a7d:	e8 60 fe ff ff       	call   118e2 <_ZN4re367kmallocEj>
   11a82:	83 c4 10             	add    $0x10,%esp
   11a85:	c9                   	leave
   11a86:	c3                   	ret

00011a87 <_Znaj>:
   11a87:	55                   	push   %ebp
   11a88:	89 e5                	mov    %esp,%ebp
   11a8a:	83 ec 08             	sub    $0x8,%esp
   11a8d:	e8 15 f6 ff ff       	call   110a7 <__x86.get_pc_thunk.ax>
   11a92:	05 6a d6 01 00       	add    $0x1d66a,%eax
   11a97:	83 ec 0c             	sub    $0xc,%esp
   11a9a:	ff 75 08             	push   0x8(%ebp)
   11a9d:	e8 40 fe ff ff       	call   118e2 <_ZN4re367kmallocEj>
   11aa2:	83 c4 10             	add    $0x10,%esp
   11aa5:	c9                   	leave
   11aa6:	c3                   	ret

00011aa7 <_ZdlPv>:
   11aa7:	55                   	push   %ebp
   11aa8:	89 e5                	mov    %esp,%ebp
   11aaa:	e8 f8 f5 ff ff       	call   110a7 <__x86.get_pc_thunk.ax>
   11aaf:	05 4d d6 01 00       	add    $0x1d64d,%eax
   11ab4:	ff 75 08             	push   0x8(%ebp)
   11ab7:	e8 45 ff ff ff       	call   11a01 <_ZN4re365kfreeEPv>
   11abc:	83 c4 04             	add    $0x4,%esp
   11abf:	90                   	nop
   11ac0:	c9                   	leave
   11ac1:	c3                   	ret

00011ac2 <_ZdlPvj>:
   11ac2:	55                   	push   %ebp
   11ac3:	89 e5                	mov    %esp,%ebp
   11ac5:	e8 dd f5 ff ff       	call   110a7 <__x86.get_pc_thunk.ax>
   11aca:	05 32 d6 01 00       	add    $0x1d632,%eax
   11acf:	ff 75 08             	push   0x8(%ebp)
   11ad2:	e8 2a ff ff ff       	call   11a01 <_ZN4re365kfreeEPv>
   11ad7:	83 c4 04             	add    $0x4,%esp
   11ada:	90                   	nop
   11adb:	c9                   	leave
   11adc:	c3                   	ret

00011add <_ZdaPv>:
   11add:	55                   	push   %ebp
   11ade:	89 e5                	mov    %esp,%ebp
   11ae0:	e8 c2 f5 ff ff       	call   110a7 <__x86.get_pc_thunk.ax>
   11ae5:	05 17 d6 01 00       	add    $0x1d617,%eax
   11aea:	ff 75 08             	push   0x8(%ebp)
   11aed:	e8 0f ff ff ff       	call   11a01 <_ZN4re365kfreeEPv>
   11af2:	83 c4 04             	add    $0x4,%esp
   11af5:	90                   	nop
   11af6:	c9                   	leave
   11af7:	c3                   	ret

00011af8 <_ZdaPvj>:
   11af8:	55                   	push   %ebp
   11af9:	89 e5                	mov    %esp,%ebp
   11afb:	e8 a7 f5 ff ff       	call   110a7 <__x86.get_pc_thunk.ax>
   11b00:	05 fc d5 01 00       	add    $0x1d5fc,%eax
   11b05:	ff 75 08             	push   0x8(%ebp)
   11b08:	e8 f4 fe ff ff       	call   11a01 <_ZN4re365kfreeEPv>
   11b0d:	83 c4 04             	add    $0x4,%esp
   11b10:	90                   	nop
   11b11:	c9                   	leave
   11b12:	c3                   	ret

00011b13 <__cxa_pure_virtual>:
   11b13:	55                   	push   %ebp
   11b14:	89 e5                	mov    %esp,%ebp
   11b16:	e8 8c f5 ff ff       	call   110a7 <__x86.get_pc_thunk.ax>
   11b1b:	05 e1 d5 01 00       	add    $0x1d5e1,%eax
   11b20:	90                   	nop
   11b21:	eb fd                	jmp    11b20 <__cxa_pure_virtual+0xd>

00011b23 <_ZN4re36L4outbEth>:
   11b23:	55                   	push   %ebp
   11b24:	89 e5                	mov    %esp,%ebp
   11b26:	83 ec 08             	sub    $0x8,%esp
   11b29:	e8 79 f5 ff ff       	call   110a7 <__x86.get_pc_thunk.ax>
   11b2e:	05 ce d5 01 00       	add    $0x1d5ce,%eax
   11b33:	8b 55 08             	mov    0x8(%ebp),%edx
   11b36:	8b 45 0c             	mov    0xc(%ebp),%eax
   11b39:	66 89 55 fc          	mov    %dx,-0x4(%ebp)
   11b3d:	88 45 f8             	mov    %al,-0x8(%ebp)
   11b40:	0f b6 45 f8          	movzbl -0x8(%ebp),%eax
   11b44:	0f b7 55 fc          	movzwl -0x4(%ebp),%edx
   11b48:	ee                   	out    %al,(%dx)
   11b49:	90                   	nop
   11b4a:	c9                   	leave
   11b4b:	c3                   	ret

00011b4c <_ZN4re36L3inbEt>:
   11b4c:	55                   	push   %ebp
   11b4d:	89 e5                	mov    %esp,%ebp
   11b4f:	83 ec 14             	sub    $0x14,%esp
   11b52:	e8 50 f5 ff ff       	call   110a7 <__x86.get_pc_thunk.ax>
   11b57:	05 a5 d5 01 00       	add    $0x1d5a5,%eax
   11b5c:	8b 45 08             	mov    0x8(%ebp),%eax
   11b5f:	66 89 45 ec          	mov    %ax,-0x14(%ebp)
   11b63:	0f b7 45 ec          	movzwl -0x14(%ebp),%eax
   11b67:	89 c2                	mov    %eax,%edx
   11b69:	ec                   	in     (%dx),%al
   11b6a:	88 45 ff             	mov    %al,-0x1(%ebp)
   11b6d:	0f b6 45 ff          	movzbl -0x1(%ebp),%eax
   11b71:	c9                   	leave
   11b72:	c3                   	ret

00011b73 <getchar>:
   11b73:	55                   	push   %ebp
   11b74:	89 e5                	mov    %esp,%ebp
   11b76:	53                   	push   %ebx
   11b77:	83 ec 04             	sub    $0x4,%esp
   11b7a:	e8 28 f5 ff ff       	call   110a7 <__x86.get_pc_thunk.ax>
   11b7f:	05 7d d5 01 00       	add    $0x1d57d,%eax
   11b84:	89 c3                	mov    %eax,%ebx
   11b86:	e8 b5 15 00 00       	call   13140 <_ZN4re3614KeyboardDriver8get_charEv>
   11b8b:	8b 5d fc             	mov    -0x4(%ebp),%ebx
   11b8e:	c9                   	leave
   11b8f:	c3                   	ret

00011b90 <memcpy>:
   11b90:	55                   	push   %ebp
   11b91:	89 e5                	mov    %esp,%ebp
   11b93:	83 ec 10             	sub    $0x10,%esp
   11b96:	e8 0c f5 ff ff       	call   110a7 <__x86.get_pc_thunk.ax>
   11b9b:	05 61 d5 01 00       	add    $0x1d561,%eax
   11ba0:	8b 45 08             	mov    0x8(%ebp),%eax
   11ba3:	89 45 f8             	mov    %eax,-0x8(%ebp)
   11ba6:	8b 45 0c             	mov    0xc(%ebp),%eax
   11ba9:	89 45 f4             	mov    %eax,-0xc(%ebp)
   11bac:	c7 45 fc 00 00 00 00 	movl   $0x0,-0x4(%ebp)
   11bb3:	eb 19                	jmp    11bce <memcpy+0x3e>
   11bb5:	8b 55 f4             	mov    -0xc(%ebp),%edx
   11bb8:	8b 45 fc             	mov    -0x4(%ebp),%eax
   11bbb:	01 d0                	add    %edx,%eax
   11bbd:	8b 4d f8             	mov    -0x8(%ebp),%ecx
   11bc0:	8b 55 fc             	mov    -0x4(%ebp),%edx
   11bc3:	01 ca                	add    %ecx,%edx
   11bc5:	0f b6 00             	movzbl (%eax),%eax
   11bc8:	88 02                	mov    %al,(%edx)
   11bca:	83 45 fc 01          	addl   $0x1,-0x4(%ebp)
   11bce:	8b 45 fc             	mov    -0x4(%ebp),%eax
   11bd1:	3b 45 10             	cmp    0x10(%ebp),%eax
   11bd4:	72 df                	jb     11bb5 <memcpy+0x25>
   11bd6:	8b 45 08             	mov    0x8(%ebp),%eax
   11bd9:	c9                   	leave
   11bda:	c3                   	ret

00011bdb <memset>:
   11bdb:	55                   	push   %ebp
   11bdc:	89 e5                	mov    %esp,%ebp
   11bde:	83 ec 10             	sub    $0x10,%esp
   11be1:	e8 c1 f4 ff ff       	call   110a7 <__x86.get_pc_thunk.ax>
   11be6:	05 16 d5 01 00       	add    $0x1d516,%eax
   11beb:	8b 45 08             	mov    0x8(%ebp),%eax
   11bee:	89 45 f8             	mov    %eax,-0x8(%ebp)
   11bf1:	c7 45 fc 00 00 00 00 	movl   $0x0,-0x4(%ebp)
   11bf8:	eb 11                	jmp    11c0b <memset+0x30>
   11bfa:	8b 55 f8             	mov    -0x8(%ebp),%edx
   11bfd:	8b 45 fc             	mov    -0x4(%ebp),%eax
   11c00:	01 d0                	add    %edx,%eax
   11c02:	8b 55 0c             	mov    0xc(%ebp),%edx
   11c05:	88 10                	mov    %dl,(%eax)
   11c07:	83 45 fc 01          	addl   $0x1,-0x4(%ebp)
   11c0b:	8b 45 fc             	mov    -0x4(%ebp),%eax
   11c0e:	3b 45 10             	cmp    0x10(%ebp),%eax
   11c11:	72 e7                	jb     11bfa <memset+0x1f>
   11c13:	8b 45 08             	mov    0x8(%ebp),%eax
   11c16:	c9                   	leave
   11c17:	c3                   	ret

00011c18 <strlen>:
   11c18:	55                   	push   %ebp
   11c19:	89 e5                	mov    %esp,%ebp
   11c1b:	83 ec 10             	sub    $0x10,%esp
   11c1e:	e8 84 f4 ff ff       	call   110a7 <__x86.get_pc_thunk.ax>
   11c23:	05 d9 d4 01 00       	add    $0x1d4d9,%eax
   11c28:	c7 45 fc 00 00 00 00 	movl   $0x0,-0x4(%ebp)
   11c2f:	eb 04                	jmp    11c35 <strlen+0x1d>
   11c31:	83 45 fc 01          	addl   $0x1,-0x4(%ebp)
   11c35:	8b 55 08             	mov    0x8(%ebp),%edx
   11c38:	8b 45 fc             	mov    -0x4(%ebp),%eax
   11c3b:	01 d0                	add    %edx,%eax
   11c3d:	0f b6 00             	movzbl (%eax),%eax
   11c40:	84 c0                	test   %al,%al
   11c42:	75 ed                	jne    11c31 <strlen+0x19>
   11c44:	8b 45 fc             	mov    -0x4(%ebp),%eax
   11c47:	c9                   	leave
   11c48:	c3                   	ret

00011c49 <strcmp>:
   11c49:	55                   	push   %ebp
   11c4a:	89 e5                	mov    %esp,%ebp
   11c4c:	e8 56 f4 ff ff       	call   110a7 <__x86.get_pc_thunk.ax>
   11c51:	05 ab d4 01 00       	add    $0x1d4ab,%eax
   11c56:	eb 08                	jmp    11c60 <strcmp+0x17>
   11c58:	83 45 08 01          	addl   $0x1,0x8(%ebp)
   11c5c:	83 45 0c 01          	addl   $0x1,0xc(%ebp)
   11c60:	8b 45 08             	mov    0x8(%ebp),%eax
   11c63:	0f b6 00             	movzbl (%eax),%eax
   11c66:	84 c0                	test   %al,%al
   11c68:	74 10                	je     11c7a <strcmp+0x31>
   11c6a:	8b 45 08             	mov    0x8(%ebp),%eax
   11c6d:	0f b6 10             	movzbl (%eax),%edx
   11c70:	8b 45 0c             	mov    0xc(%ebp),%eax
   11c73:	0f b6 00             	movzbl (%eax),%eax
   11c76:	38 c2                	cmp    %al,%dl
   11c78:	74 de                	je     11c58 <strcmp+0xf>
   11c7a:	8b 45 08             	mov    0x8(%ebp),%eax
   11c7d:	0f b6 00             	movzbl (%eax),%eax
   11c80:	0f b6 d0             	movzbl %al,%edx
   11c83:	8b 45 0c             	mov    0xc(%ebp),%eax
   11c86:	0f b6 00             	movzbl (%eax),%eax
   11c89:	0f b6 c0             	movzbl %al,%eax
   11c8c:	29 c2                	sub    %eax,%edx
   11c8e:	89 d0                	mov    %edx,%eax
   11c90:	5d                   	pop    %ebp
   11c91:	c3                   	ret

00011c92 <atoi>:
   11c92:	55                   	push   %ebp
   11c93:	89 e5                	mov    %esp,%ebp
   11c95:	83 ec 10             	sub    $0x10,%esp
   11c98:	e8 0a f4 ff ff       	call   110a7 <__x86.get_pc_thunk.ax>
   11c9d:	05 5f d4 01 00       	add    $0x1d45f,%eax
   11ca2:	c7 45 fc 00 00 00 00 	movl   $0x0,-0x4(%ebp)
   11ca9:	c7 45 f8 01 00 00 00 	movl   $0x1,-0x8(%ebp)
   11cb0:	eb 04                	jmp    11cb6 <atoi+0x24>
   11cb2:	83 45 08 01          	addl   $0x1,0x8(%ebp)
   11cb6:	8b 45 08             	mov    0x8(%ebp),%eax
   11cb9:	0f b6 00             	movzbl (%eax),%eax
   11cbc:	3c 20                	cmp    $0x20,%al
   11cbe:	74 f2                	je     11cb2 <atoi+0x20>
   11cc0:	8b 45 08             	mov    0x8(%ebp),%eax
   11cc3:	0f b6 00             	movzbl (%eax),%eax
   11cc6:	3c 09                	cmp    $0x9,%al
   11cc8:	74 e8                	je     11cb2 <atoi+0x20>
   11cca:	8b 45 08             	mov    0x8(%ebp),%eax
   11ccd:	0f b6 00             	movzbl (%eax),%eax
   11cd0:	3c 0a                	cmp    $0xa,%al
   11cd2:	74 de                	je     11cb2 <atoi+0x20>
   11cd4:	8b 45 08             	mov    0x8(%ebp),%eax
   11cd7:	0f b6 00             	movzbl (%eax),%eax
   11cda:	3c 2d                	cmp    $0x2d,%al
   11cdc:	75 0d                	jne    11ceb <atoi+0x59>
   11cde:	c7 45 f8 ff ff ff ff 	movl   $0xffffffff,-0x8(%ebp)
   11ce5:	83 45 08 01          	addl   $0x1,0x8(%ebp)
   11ce9:	eb 33                	jmp    11d1e <atoi+0x8c>
   11ceb:	8b 45 08             	mov    0x8(%ebp),%eax
   11cee:	0f b6 00             	movzbl (%eax),%eax
   11cf1:	3c 2b                	cmp    $0x2b,%al
   11cf3:	75 29                	jne    11d1e <atoi+0x8c>
   11cf5:	83 45 08 01          	addl   $0x1,0x8(%ebp)
   11cf9:	eb 23                	jmp    11d1e <atoi+0x8c>
   11cfb:	8b 55 fc             	mov    -0x4(%ebp),%edx
   11cfe:	89 d0                	mov    %edx,%eax
   11d00:	c1 e0 02             	shl    $0x2,%eax
   11d03:	01 d0                	add    %edx,%eax
   11d05:	01 c0                	add    %eax,%eax
   11d07:	89 c2                	mov    %eax,%edx
   11d09:	8b 45 08             	mov    0x8(%ebp),%eax
   11d0c:	0f b6 00             	movzbl (%eax),%eax
   11d0f:	0f be c0             	movsbl %al,%eax
   11d12:	83 e8 30             	sub    $0x30,%eax
   11d15:	01 d0                	add    %edx,%eax
   11d17:	89 45 fc             	mov    %eax,-0x4(%ebp)
   11d1a:	83 45 08 01          	addl   $0x1,0x8(%ebp)
   11d1e:	8b 45 08             	mov    0x8(%ebp),%eax
   11d21:	0f b6 00             	movzbl (%eax),%eax
   11d24:	3c 2f                	cmp    $0x2f,%al
   11d26:	7e 0a                	jle    11d32 <atoi+0xa0>
   11d28:	8b 45 08             	mov    0x8(%ebp),%eax
   11d2b:	0f b6 00             	movzbl (%eax),%eax
   11d2e:	3c 39                	cmp    $0x39,%al
   11d30:	7e c9                	jle    11cfb <atoi+0x69>
   11d32:	8b 45 fc             	mov    -0x4(%ebp),%eax
   11d35:	0f af 45 f8          	imul   -0x8(%ebp),%eax
   11d39:	c9                   	leave
   11d3a:	c3                   	ret

00011d3b <vga_to_hex>:
   11d3b:	55                   	push   %ebp
   11d3c:	89 e5                	mov    %esp,%ebp
   11d3e:	83 ec 04             	sub    $0x4,%esp
   11d41:	e8 61 f3 ff ff       	call   110a7 <__x86.get_pc_thunk.ax>
   11d46:	05 b6 d3 01 00       	add    $0x1d3b6,%eax
   11d4b:	8b 55 08             	mov    0x8(%ebp),%edx
   11d4e:	88 55 fc             	mov    %dl,-0x4(%ebp)
   11d51:	0f b6 55 fc          	movzbl -0x4(%ebp),%edx
   11d55:	83 e2 0f             	and    $0xf,%edx
   11d58:	83 fa 0f             	cmp    $0xf,%edx
   11d5b:	77 7e                	ja     11ddb <.L40+0x7>
   11d5d:	c1 e2 02             	shl    $0x2,%edx
   11d60:	8b 94 02 b8 92 ff ff 	mov    -0x6d48(%edx,%eax,1),%edx
   11d67:	01 d0                	add    %edx,%eax
   11d69:	ff e0                	jmp    *%eax

00011d6b <.L56>:
   11d6b:	b8 00 00 00 00       	mov    $0x0,%eax
   11d70:	eb 6e                	jmp    11de0 <.L40+0xc>

00011d72 <.L55>:
   11d72:	b8 aa 00 00 00       	mov    $0xaa,%eax
   11d77:	eb 67                	jmp    11de0 <.L40+0xc>

00011d79 <.L54>:
   11d79:	b8 00 aa 00 00       	mov    $0xaa00,%eax
   11d7e:	eb 60                	jmp    11de0 <.L40+0xc>

00011d80 <.L53>:
   11d80:	b8 aa aa 00 00       	mov    $0xaaaa,%eax
   11d85:	eb 59                	jmp    11de0 <.L40+0xc>

00011d87 <.L52>:
   11d87:	b8 00 00 aa 00       	mov    $0xaa0000,%eax
   11d8c:	eb 52                	jmp    11de0 <.L40+0xc>

00011d8e <.L51>:
   11d8e:	b8 aa 00 aa 00       	mov    $0xaa00aa,%eax
   11d93:	eb 4b                	jmp    11de0 <.L40+0xc>

00011d95 <.L50>:
   11d95:	b8 00 55 aa 00       	mov    $0xaa5500,%eax
   11d9a:	eb 44                	jmp    11de0 <.L40+0xc>

00011d9c <.L49>:
   11d9c:	b8 aa aa aa 00       	mov    $0xaaaaaa,%eax
   11da1:	eb 3d                	jmp    11de0 <.L40+0xc>

00011da3 <.L48>:
   11da3:	b8 55 55 55 00       	mov    $0x555555,%eax
   11da8:	eb 36                	jmp    11de0 <.L40+0xc>

00011daa <.L47>:
   11daa:	b8 ff 55 55 00       	mov    $0x5555ff,%eax
   11daf:	eb 2f                	jmp    11de0 <.L40+0xc>

00011db1 <.L46>:
   11db1:	b8 55 ff 55 00       	mov    $0x55ff55,%eax
   11db6:	eb 28                	jmp    11de0 <.L40+0xc>

00011db8 <.L45>:
   11db8:	b8 ff ff 55 00       	mov    $0x55ffff,%eax
   11dbd:	eb 21                	jmp    11de0 <.L40+0xc>

00011dbf <.L44>:
   11dbf:	b8 55 55 ff 00       	mov    $0xff5555,%eax
   11dc4:	eb 1a                	jmp    11de0 <.L40+0xc>

00011dc6 <.L43>:
   11dc6:	b8 ff 55 ff 00       	mov    $0xff55ff,%eax
   11dcb:	eb 13                	jmp    11de0 <.L40+0xc>

00011dcd <.L42>:
   11dcd:	b8 55 ff ff 00       	mov    $0xffff55,%eax
   11dd2:	eb 0c                	jmp    11de0 <.L40+0xc>

00011dd4 <.L40>:
   11dd4:	b8 ff ff ff 00       	mov    $0xffffff,%eax
   11dd9:	eb 05                	jmp    11de0 <.L40+0xc>
   11ddb:	b8 ff ff ff 00       	mov    $0xffffff,%eax
   11de0:	c9                   	leave
   11de1:	c3                   	ret

00011de2 <set_color>:
   11de2:	55                   	push   %ebp
   11de3:	89 e5                	mov    %esp,%ebp
   11de5:	53                   	push   %ebx
   11de6:	83 ec 08             	sub    $0x8,%esp
   11de9:	e8 bd f2 ff ff       	call   110ab <__x86.get_pc_thunk.bx>
   11dee:	81 c3 0e d3 01 00    	add    $0x1d30e,%ebx
   11df4:	8b 55 08             	mov    0x8(%ebp),%edx
   11df7:	8b 45 0c             	mov    0xc(%ebp),%eax
   11dfa:	88 55 f8             	mov    %dl,-0x8(%ebp)
   11dfd:	88 45 f4             	mov    %al,-0xc(%ebp)
   11e00:	0f b6 45 f8          	movzbl -0x8(%ebp),%eax
   11e04:	88 83 88 ff ff ff    	mov    %al,-0x78(%ebx)
   11e0a:	0f b6 45 f4          	movzbl -0xc(%ebp),%eax
   11e0e:	88 83 24 17 00 00    	mov    %al,0x1724(%ebx)
   11e14:	0f b6 45 f4          	movzbl -0xc(%ebp),%eax
   11e18:	c1 e0 04             	shl    $0x4,%eax
   11e1b:	89 c2                	mov    %eax,%edx
   11e1d:	0f b6 45 f8          	movzbl -0x8(%ebp),%eax
   11e21:	09 d0                	or     %edx,%eax
   11e23:	88 83 89 ff ff ff    	mov    %al,-0x77(%ebx)
   11e29:	0f b6 45 f8          	movzbl -0x8(%ebp),%eax
   11e2d:	50                   	push   %eax
   11e2e:	e8 08 ff ff ff       	call   11d3b <vga_to_hex>
   11e33:	83 c4 04             	add    $0x4,%esp
   11e36:	89 83 8c ff ff ff    	mov    %eax,-0x74(%ebx)
   11e3c:	0f b6 45 f4          	movzbl -0xc(%ebp),%eax
   11e40:	50                   	push   %eax
   11e41:	e8 f5 fe ff ff       	call   11d3b <vga_to_hex>
   11e46:	83 c4 04             	add    $0x4,%esp
   11e49:	89 83 28 17 00 00    	mov    %eax,0x1728(%ebx)
   11e4f:	90                   	nop
   11e50:	8b 5d fc             	mov    -0x4(%ebp),%ebx
   11e53:	c9                   	leave
   11e54:	c3                   	ret

00011e55 <update_vga_cursor>:
   11e55:	55                   	push   %ebp
   11e56:	89 e5                	mov    %esp,%ebp
   11e58:	83 ec 10             	sub    $0x10,%esp
   11e5b:	e8 47 f2 ff ff       	call   110a7 <__x86.get_pc_thunk.ax>
   11e60:	05 9c d2 01 00       	add    $0x1d29c,%eax
   11e65:	8b 45 0c             	mov    0xc(%ebp),%eax
   11e68:	89 c2                	mov    %eax,%edx
   11e6a:	89 d0                	mov    %edx,%eax
   11e6c:	c1 e0 02             	shl    $0x2,%eax
   11e6f:	01 d0                	add    %edx,%eax
   11e71:	c1 e0 04             	shl    $0x4,%eax
   11e74:	89 c2                	mov    %eax,%edx
   11e76:	8b 45 08             	mov    0x8(%ebp),%eax
   11e79:	01 d0                	add    %edx,%eax
   11e7b:	66 89 45 fe          	mov    %ax,-0x2(%ebp)
   11e7f:	6a 0f                	push   $0xf
   11e81:	68 d4 03 00 00       	push   $0x3d4
   11e86:	e8 98 fc ff ff       	call   11b23 <_ZN4re36L4outbEth>
   11e8b:	83 c4 08             	add    $0x8,%esp
   11e8e:	0f b7 45 fe          	movzwl -0x2(%ebp),%eax
   11e92:	0f b6 c0             	movzbl %al,%eax
   11e95:	50                   	push   %eax
   11e96:	68 d5 03 00 00       	push   $0x3d5
   11e9b:	e8 83 fc ff ff       	call   11b23 <_ZN4re36L4outbEth>
   11ea0:	83 c4 08             	add    $0x8,%esp
   11ea3:	6a 0e                	push   $0xe
   11ea5:	68 d4 03 00 00       	push   $0x3d4
   11eaa:	e8 74 fc ff ff       	call   11b23 <_ZN4re36L4outbEth>
   11eaf:	83 c4 08             	add    $0x8,%esp
   11eb2:	0f b7 45 fe          	movzwl -0x2(%ebp),%eax
   11eb6:	66 c1 e8 08          	shr    $0x8,%ax
   11eba:	0f b6 c0             	movzbl %al,%eax
   11ebd:	50                   	push   %eax
   11ebe:	68 d5 03 00 00       	push   $0x3d5
   11ec3:	e8 5b fc ff ff       	call   11b23 <_ZN4re36L4outbEth>
   11ec8:	83 c4 08             	add    $0x8,%esp
   11ecb:	90                   	nop
   11ecc:	c9                   	leave
   11ecd:	c3                   	ret

00011ece <draw_bga_cursor>:
   11ece:	55                   	push   %ebp
   11ecf:	89 e5                	mov    %esp,%ebp
   11ed1:	53                   	push   %ebx
   11ed2:	83 ec 24             	sub    $0x24,%esp
   11ed5:	e8 d1 f1 ff ff       	call   110ab <__x86.get_pc_thunk.bx>
   11eda:	81 c3 22 d2 01 00    	add    $0x1d222,%ebx
   11ee0:	8b 45 10             	mov    0x10(%ebp),%eax
   11ee3:	88 45 e4             	mov    %al,-0x1c(%ebp)
   11ee6:	80 7d e4 00          	cmpb   $0x0,-0x1c(%ebp)
   11eea:	74 08                	je     11ef4 <draw_bga_cursor+0x26>
   11eec:	8b 83 8c ff ff ff    	mov    -0x74(%ebx),%eax
   11ef2:	eb 06                	jmp    11efa <draw_bga_cursor+0x2c>
   11ef4:	8b 83 28 17 00 00    	mov    0x1728(%ebx),%eax
   11efa:	89 45 f0             	mov    %eax,-0x10(%ebp)
   11efd:	8b 45 08             	mov    0x8(%ebp),%eax
   11f00:	c1 e0 03             	shl    $0x3,%eax
   11f03:	89 45 ec             	mov    %eax,-0x14(%ebp)
   11f06:	8b 45 0c             	mov    0xc(%ebp),%eax
   11f09:	c1 e0 03             	shl    $0x3,%eax
   11f0c:	89 45 e8             	mov    %eax,-0x18(%ebp)
   11f0f:	c7 45 f4 00 00 00 00 	movl   $0x0,-0xc(%ebp)
   11f16:	eb 44                	jmp    11f5c <draw_bga_cursor+0x8e>
   11f18:	8b 45 e8             	mov    -0x18(%ebp),%eax
   11f1b:	83 c0 07             	add    $0x7,%eax
   11f1e:	89 c1                	mov    %eax,%ecx
   11f20:	8b 55 ec             	mov    -0x14(%ebp),%edx
   11f23:	8b 45 f4             	mov    -0xc(%ebp),%eax
   11f26:	01 d0                	add    %edx,%eax
   11f28:	83 ec 04             	sub    $0x4,%esp
   11f2b:	ff 75 f0             	push   -0x10(%ebp)
   11f2e:	51                   	push   %ecx
   11f2f:	50                   	push   %eax
   11f30:	e8 0f ee 00 00       	call   20d44 <_ZN4re369BgaDriver9put_pixelEjjj>
   11f35:	83 c4 10             	add    $0x10,%esp
   11f38:	8b 45 e8             	mov    -0x18(%ebp),%eax
   11f3b:	83 c0 06             	add    $0x6,%eax
   11f3e:	89 c1                	mov    %eax,%ecx
   11f40:	8b 55 ec             	mov    -0x14(%ebp),%edx
   11f43:	8b 45 f4             	mov    -0xc(%ebp),%eax
   11f46:	01 d0                	add    %edx,%eax
   11f48:	83 ec 04             	sub    $0x4,%esp
   11f4b:	ff 75 f0             	push   -0x10(%ebp)
   11f4e:	51                   	push   %ecx
   11f4f:	50                   	push   %eax
   11f50:	e8 ef ed 00 00       	call   20d44 <_ZN4re369BgaDriver9put_pixelEjjj>
   11f55:	83 c4 10             	add    $0x10,%esp
   11f58:	83 45 f4 01          	addl   $0x1,-0xc(%ebp)
   11f5c:	83 7d f4 07          	cmpl   $0x7,-0xc(%ebp)
   11f60:	7e b6                	jle    11f18 <draw_bga_cursor+0x4a>
   11f62:	90                   	nop
   11f63:	90                   	nop
   11f64:	8b 5d fc             	mov    -0x4(%ebp),%ebx
   11f67:	c9                   	leave
   11f68:	c3                   	ret

00011f69 <serial_init>:
   11f69:	55                   	push   %ebp
   11f6a:	89 e5                	mov    %esp,%ebp
   11f6c:	53                   	push   %ebx
   11f6d:	e8 39 f1 ff ff       	call   110ab <__x86.get_pc_thunk.bx>
   11f72:	81 c3 8a d1 01 00    	add    $0x1d18a,%ebx
   11f78:	6a 00                	push   $0x0
   11f7a:	68 f9 03 00 00       	push   $0x3f9
   11f7f:	e8 9f fb ff ff       	call   11b23 <_ZN4re36L4outbEth>
   11f84:	83 c4 08             	add    $0x8,%esp
   11f87:	68 80 00 00 00       	push   $0x80
   11f8c:	68 fb 03 00 00       	push   $0x3fb
   11f91:	e8 8d fb ff ff       	call   11b23 <_ZN4re36L4outbEth>
   11f96:	83 c4 08             	add    $0x8,%esp
   11f99:	6a 01                	push   $0x1
   11f9b:	68 f8 03 00 00       	push   $0x3f8
   11fa0:	e8 7e fb ff ff       	call   11b23 <_ZN4re36L4outbEth>
   11fa5:	83 c4 08             	add    $0x8,%esp
   11fa8:	6a 00                	push   $0x0
   11faa:	68 f9 03 00 00       	push   $0x3f9
   11faf:	e8 6f fb ff ff       	call   11b23 <_ZN4re36L4outbEth>
   11fb4:	83 c4 08             	add    $0x8,%esp
   11fb7:	6a 03                	push   $0x3
   11fb9:	68 fb 03 00 00       	push   $0x3fb
   11fbe:	e8 60 fb ff ff       	call   11b23 <_ZN4re36L4outbEth>
   11fc3:	83 c4 08             	add    $0x8,%esp
   11fc6:	68 c7 00 00 00       	push   $0xc7
   11fcb:	68 fa 03 00 00       	push   $0x3fa
   11fd0:	e8 4e fb ff ff       	call   11b23 <_ZN4re36L4outbEth>
   11fd5:	83 c4 08             	add    $0x8,%esp
   11fd8:	6a 0b                	push   $0xb
   11fda:	68 fc 03 00 00       	push   $0x3fc
   11fdf:	e8 3f fb ff ff       	call   11b23 <_ZN4re36L4outbEth>
   11fe4:	83 c4 08             	add    $0x8,%esp
   11fe7:	c6 83 2c 17 00 00 01 	movb   $0x1,0x172c(%ebx)
   11fee:	90                   	nop
   11fef:	8b 5d fc             	mov    -0x4(%ebp),%ebx
   11ff2:	c9                   	leave
   11ff3:	c3                   	ret

00011ff4 <serial_putchar>:
   11ff4:	55                   	push   %ebp
   11ff5:	89 e5                	mov    %esp,%ebp
   11ff7:	83 ec 04             	sub    $0x4,%esp
   11ffa:	e8 a8 f0 ff ff       	call   110a7 <__x86.get_pc_thunk.ax>
   11fff:	05 fd d0 01 00       	add    $0x1d0fd,%eax
   12004:	8b 55 08             	mov    0x8(%ebp),%edx
   12007:	88 55 fc             	mov    %dl,-0x4(%ebp)
   1200a:	0f b6 80 2c 17 00 00 	movzbl 0x172c(%eax),%eax
   12011:	83 f0 01             	xor    $0x1,%eax
   12014:	84 c0                	test   %al,%al
   12016:	75 34                	jne    1204c <serial_putchar+0x58>
   12018:	90                   	nop
   12019:	68 fd 03 00 00       	push   $0x3fd
   1201e:	e8 29 fb ff ff       	call   11b4c <_ZN4re36L3inbEt>
   12023:	83 c4 04             	add    $0x4,%esp
   12026:	0f b6 c0             	movzbl %al,%eax
   12029:	83 e0 20             	and    $0x20,%eax
   1202c:	85 c0                	test   %eax,%eax
   1202e:	0f 94 c0             	sete   %al
   12031:	84 c0                	test   %al,%al
   12033:	75 e4                	jne    12019 <serial_putchar+0x25>
   12035:	0f b6 45 fc          	movzbl -0x4(%ebp),%eax
   12039:	0f b6 c0             	movzbl %al,%eax
   1203c:	50                   	push   %eax
   1203d:	68 f8 03 00 00       	push   $0x3f8
   12042:	e8 dc fa ff ff       	call   11b23 <_ZN4re36L4outbEth>
   12047:	83 c4 08             	add    $0x8,%esp
   1204a:	eb 01                	jmp    1204d <serial_putchar+0x59>
   1204c:	90                   	nop
   1204d:	c9                   	leave
   1204e:	c3                   	ret

0001204f <putchar>:
   1204f:	55                   	push   %ebp
   12050:	89 e5                	mov    %esp,%ebp
   12052:	57                   	push   %edi
   12053:	56                   	push   %esi
   12054:	53                   	push   %ebx
   12055:	83 ec 3c             	sub    $0x3c,%esp
   12058:	e8 4e f0 ff ff       	call   110ab <__x86.get_pc_thunk.bx>
   1205d:	81 c3 9f d0 01 00    	add    $0x1d09f,%ebx
   12063:	8b 45 08             	mov    0x8(%ebp),%eax
   12066:	88 45 c4             	mov    %al,-0x3c(%ebp)
   12069:	80 7d c4 0a          	cmpb   $0xa,-0x3c(%ebp)
   1206d:	75 0a                	jne    12079 <putchar+0x2a>
   1206f:	6a 0d                	push   $0xd
   12071:	e8 7e ff ff ff       	call   11ff4 <serial_putchar>
   12076:	83 c4 04             	add    $0x4,%esp
   12079:	0f be 45 c4          	movsbl -0x3c(%ebp),%eax
   1207d:	50                   	push   %eax
   1207e:	e8 71 ff ff ff       	call   11ff4 <serial_putchar>
   12083:	83 c4 04             	add    $0x4,%esp
   12086:	e8 04 f0 ff ff       	call   1108f <_ZN4re369BgaDriver14is_initializedEv>
   1208b:	88 45 d3             	mov    %al,-0x2d(%ebp)
   1208e:	e8 67 3b 01 00       	call   25bfa <_ZN4re363VGA11is_graphicsEv>
   12093:	88 45 d2             	mov    %al,-0x2e(%ebp)
   12096:	c7 45 e4 50 00 00 00 	movl   $0x50,-0x1c(%ebp)
   1209d:	c7 45 e0 19 00 00 00 	movl   $0x19,-0x20(%ebp)
   120a4:	80 7d d3 00          	cmpb   $0x0,-0x2d(%ebp)
   120a8:	74 20                	je     120ca <putchar+0x7b>
   120aa:	e8 1e 0a 00 00       	call   12acd <_ZN4re369BgaDriver9get_widthEv>
   120af:	66 c1 e8 03          	shr    $0x3,%ax
   120b3:	0f b7 c0             	movzwl %ax,%eax
   120b6:	89 45 e4             	mov    %eax,-0x1c(%ebp)
   120b9:	e8 27 0a 00 00       	call   12ae5 <_ZN4re369BgaDriver10get_heightEv>
   120be:	66 c1 e8 03          	shr    $0x3,%ax
   120c2:	0f b7 c0             	movzwl %ax,%eax
   120c5:	89 45 e0             	mov    %eax,-0x20(%ebp)
   120c8:	eb 0d                	jmp    120d7 <putchar+0x88>
   120ca:	80 7d d2 00          	cmpb   $0x0,-0x2e(%ebp)
   120ce:	74 07                	je     120d7 <putchar+0x88>
   120d0:	c7 45 e4 28 00 00 00 	movl   $0x28,-0x1c(%ebp)
   120d7:	80 7d c4 0a          	cmpb   $0xa,-0x3c(%ebp)
   120db:	75 3f                	jne    1211c <putchar+0xcd>
   120dd:	80 7d d3 00          	cmpb   $0x0,-0x2d(%ebp)
   120e1:	74 1b                	je     120fe <putchar+0xaf>
   120e3:	8b 93 84 ff ff ff    	mov    -0x7c(%ebx),%edx
   120e9:	8b 83 20 17 00 00    	mov    0x1720(%ebx),%eax
   120ef:	83 ec 04             	sub    $0x4,%esp
   120f2:	6a 00                	push   $0x0
   120f4:	52                   	push   %edx
   120f5:	50                   	push   %eax
   120f6:	e8 d3 fd ff ff       	call   11ece <draw_bga_cursor>
   120fb:	83 c4 10             	add    $0x10,%esp
   120fe:	c7 83 20 17 00 00 00 	movl   $0x0,0x1720(%ebx)
   12105:	00 00 00 
   12108:	8b 83 84 ff ff ff    	mov    -0x7c(%ebx),%eax
   1210e:	83 c0 01             	add    $0x1,%eax
   12111:	89 83 84 ff ff ff    	mov    %eax,-0x7c(%ebx)
   12117:	e9 06 03 00 00       	jmp    12422 <putchar+0x3d3>
   1211c:	80 7d c4 08          	cmpb   $0x8,-0x3c(%ebp)
   12120:	0f 85 0c 02 00 00    	jne    12332 <putchar+0x2e3>
   12126:	8b 83 20 17 00 00    	mov    0x1720(%ebx),%eax
   1212c:	85 c0                	test   %eax,%eax
   1212e:	0f 8e f2 00 00 00    	jle    12226 <putchar+0x1d7>
   12134:	80 7d d3 00          	cmpb   $0x0,-0x2d(%ebp)
   12138:	74 1b                	je     12155 <putchar+0x106>
   1213a:	8b 93 84 ff ff ff    	mov    -0x7c(%ebx),%edx
   12140:	8b 83 20 17 00 00    	mov    0x1720(%ebx),%eax
   12146:	83 ec 04             	sub    $0x4,%esp
   12149:	6a 00                	push   $0x0
   1214b:	52                   	push   %edx
   1214c:	50                   	push   %eax
   1214d:	e8 7c fd ff ff       	call   11ece <draw_bga_cursor>
   12152:	83 c4 10             	add    $0x10,%esp
   12155:	8b 83 20 17 00 00    	mov    0x1720(%ebx),%eax
   1215b:	83 e8 01             	sub    $0x1,%eax
   1215e:	89 83 20 17 00 00    	mov    %eax,0x1720(%ebx)
   12164:	80 7d d3 00          	cmpb   $0x0,-0x2d(%ebp)
   12168:	74 36                	je     121a0 <putchar+0x151>
   1216a:	8b 93 28 17 00 00    	mov    0x1728(%ebx),%edx
   12170:	8b 83 8c ff ff ff    	mov    -0x74(%ebx),%eax
   12176:	8b 8b 84 ff ff ff    	mov    -0x7c(%ebx),%ecx
   1217c:	c1 e1 03             	shl    $0x3,%ecx
   1217f:	89 ce                	mov    %ecx,%esi
   12181:	8b 8b 20 17 00 00    	mov    0x1720(%ebx),%ecx
   12187:	c1 e1 03             	shl    $0x3,%ecx
   1218a:	83 ec 0c             	sub    $0xc,%esp
   1218d:	52                   	push   %edx
   1218e:	50                   	push   %eax
   1218f:	6a 20                	push   $0x20
   12191:	56                   	push   %esi
   12192:	51                   	push   %ecx
   12193:	e8 50 ed 00 00       	call   20ee8 <_ZN4re369BgaDriver9draw_charEjjcjj>
   12198:	83 c4 20             	add    $0x20,%esp
   1219b:	e9 82 02 00 00       	jmp    12422 <putchar+0x3d3>
   121a0:	80 7d d2 00          	cmpb   $0x0,-0x2e(%ebp)
   121a4:	74 40                	je     121e6 <putchar+0x197>
   121a6:	0f b6 83 24 17 00 00 	movzbl 0x1724(%ebx),%eax
   121ad:	0f b6 d0             	movzbl %al,%edx
   121b0:	0f b6 83 88 ff ff ff 	movzbl -0x78(%ebx),%eax
   121b7:	0f b6 c0             	movzbl %al,%eax
   121ba:	8b 8b 84 ff ff ff    	mov    -0x7c(%ebx),%ecx
   121c0:	8d 34 cd 00 00 00 00 	lea    0x0(,%ecx,8),%esi
   121c7:	8b 8b 20 17 00 00    	mov    0x1720(%ebx),%ecx
   121cd:	c1 e1 03             	shl    $0x3,%ecx
   121d0:	83 ec 0c             	sub    $0xc,%esp
   121d3:	52                   	push   %edx
   121d4:	50                   	push   %eax
   121d5:	6a 20                	push   $0x20
   121d7:	56                   	push   %esi
   121d8:	51                   	push   %ecx
   121d9:	e8 dc 3e 01 00       	call   260ba <_ZN4re363VGA9draw_charEiichh>
   121de:	83 c4 20             	add    $0x20,%esp
   121e1:	e9 3c 02 00 00       	jmp    12422 <putchar+0x3d3>
   121e6:	0f b6 83 89 ff ff ff 	movzbl -0x77(%ebx),%eax
   121ed:	0f b6 c0             	movzbl %al,%eax
   121f0:	c1 e0 08             	shl    $0x8,%eax
   121f3:	83 c8 20             	or     $0x20,%eax
   121f6:	89 c6                	mov    %eax,%esi
   121f8:	8b 8b 90 ff ff ff    	mov    -0x70(%ebx),%ecx
   121fe:	8b 93 84 ff ff ff    	mov    -0x7c(%ebx),%edx
   12204:	89 d0                	mov    %edx,%eax
   12206:	c1 e0 02             	shl    $0x2,%eax
   12209:	01 d0                	add    %edx,%eax
   1220b:	c1 e0 04             	shl    $0x4,%eax
   1220e:	89 c2                	mov    %eax,%edx
   12210:	8b 83 20 17 00 00    	mov    0x1720(%ebx),%eax
   12216:	01 d0                	add    %edx,%eax
   12218:	01 c0                	add    %eax,%eax
   1221a:	01 c8                	add    %ecx,%eax
   1221c:	89 f2                	mov    %esi,%edx
   1221e:	66 89 10             	mov    %dx,(%eax)
   12221:	e9 fc 01 00 00       	jmp    12422 <putchar+0x3d3>
   12226:	8b 83 84 ff ff ff    	mov    -0x7c(%ebx),%eax
   1222c:	85 c0                	test   %eax,%eax
   1222e:	0f 8e ee 01 00 00    	jle    12422 <putchar+0x3d3>
   12234:	80 7d d3 00          	cmpb   $0x0,-0x2d(%ebp)
   12238:	74 1b                	je     12255 <putchar+0x206>
   1223a:	8b 93 84 ff ff ff    	mov    -0x7c(%ebx),%edx
   12240:	8b 83 20 17 00 00    	mov    0x1720(%ebx),%eax
   12246:	83 ec 04             	sub    $0x4,%esp
   12249:	6a 00                	push   $0x0
   1224b:	52                   	push   %edx
   1224c:	50                   	push   %eax
   1224d:	e8 7c fc ff ff       	call   11ece <draw_bga_cursor>
   12252:	83 c4 10             	add    $0x10,%esp
   12255:	8b 83 84 ff ff ff    	mov    -0x7c(%ebx),%eax
   1225b:	83 e8 01             	sub    $0x1,%eax
   1225e:	89 83 84 ff ff ff    	mov    %eax,-0x7c(%ebx)
   12264:	8b 45 e4             	mov    -0x1c(%ebp),%eax
   12267:	83 e8 01             	sub    $0x1,%eax
   1226a:	89 83 20 17 00 00    	mov    %eax,0x1720(%ebx)
   12270:	80 7d d3 00          	cmpb   $0x0,-0x2d(%ebp)
   12274:	74 36                	je     122ac <putchar+0x25d>
   12276:	8b 93 28 17 00 00    	mov    0x1728(%ebx),%edx
   1227c:	8b 83 8c ff ff ff    	mov    -0x74(%ebx),%eax
   12282:	8b 8b 84 ff ff ff    	mov    -0x7c(%ebx),%ecx
   12288:	c1 e1 03             	shl    $0x3,%ecx
   1228b:	89 ce                	mov    %ecx,%esi
   1228d:	8b 8b 20 17 00 00    	mov    0x1720(%ebx),%ecx
   12293:	c1 e1 03             	shl    $0x3,%ecx
   12296:	83 ec 0c             	sub    $0xc,%esp
   12299:	52                   	push   %edx
   1229a:	50                   	push   %eax
   1229b:	6a 20                	push   $0x20
   1229d:	56                   	push   %esi
   1229e:	51                   	push   %ecx
   1229f:	e8 44 ec 00 00       	call   20ee8 <_ZN4re369BgaDriver9draw_charEjjcjj>
   122a4:	83 c4 20             	add    $0x20,%esp
   122a7:	e9 76 01 00 00       	jmp    12422 <putchar+0x3d3>
   122ac:	80 7d d2 00          	cmpb   $0x0,-0x2e(%ebp)
   122b0:	74 40                	je     122f2 <putchar+0x2a3>
   122b2:	0f b6 83 24 17 00 00 	movzbl 0x1724(%ebx),%eax
   122b9:	0f b6 d0             	movzbl %al,%edx
   122bc:	0f b6 83 88 ff ff ff 	movzbl -0x78(%ebx),%eax
   122c3:	0f b6 c0             	movzbl %al,%eax
   122c6:	8b 8b 84 ff ff ff    	mov    -0x7c(%ebx),%ecx
   122cc:	8d 34 cd 00 00 00 00 	lea    0x0(,%ecx,8),%esi
   122d3:	8b 8b 20 17 00 00    	mov    0x1720(%ebx),%ecx
   122d9:	c1 e1 03             	shl    $0x3,%ecx
   122dc:	83 ec 0c             	sub    $0xc,%esp
   122df:	52                   	push   %edx
   122e0:	50                   	push   %eax
   122e1:	6a 20                	push   $0x20
   122e3:	56                   	push   %esi
   122e4:	51                   	push   %ecx
   122e5:	e8 d0 3d 01 00       	call   260ba <_ZN4re363VGA9draw_charEiichh>
   122ea:	83 c4 20             	add    $0x20,%esp
   122ed:	e9 30 01 00 00       	jmp    12422 <putchar+0x3d3>
   122f2:	0f b6 83 89 ff ff ff 	movzbl -0x77(%ebx),%eax
   122f9:	0f b6 c0             	movzbl %al,%eax
   122fc:	c1 e0 08             	shl    $0x8,%eax
   122ff:	83 c8 20             	or     $0x20,%eax
   12302:	89 c6                	mov    %eax,%esi
   12304:	8b 8b 90 ff ff ff    	mov    -0x70(%ebx),%ecx
   1230a:	8b 93 84 ff ff ff    	mov    -0x7c(%ebx),%edx
   12310:	89 d0                	mov    %edx,%eax
   12312:	c1 e0 02             	shl    $0x2,%eax
   12315:	01 d0                	add    %edx,%eax
   12317:	c1 e0 04             	shl    $0x4,%eax
   1231a:	89 c2                	mov    %eax,%edx
   1231c:	8b 83 20 17 00 00    	mov    0x1720(%ebx),%eax
   12322:	01 d0                	add    %edx,%eax
   12324:	01 c0                	add    %eax,%eax
   12326:	01 c8                	add    %ecx,%eax
   12328:	89 f2                	mov    %esi,%edx
   1232a:	66 89 10             	mov    %dx,(%eax)
   1232d:	e9 f0 00 00 00       	jmp    12422 <putchar+0x3d3>
   12332:	80 7d d3 00          	cmpb   $0x0,-0x2d(%ebp)
   12336:	74 54                	je     1238c <putchar+0x33d>
   12338:	8b 93 84 ff ff ff    	mov    -0x7c(%ebx),%edx
   1233e:	8b 83 20 17 00 00    	mov    0x1720(%ebx),%eax
   12344:	83 ec 04             	sub    $0x4,%esp
   12347:	6a 00                	push   $0x0
   12349:	52                   	push   %edx
   1234a:	50                   	push   %eax
   1234b:	e8 7e fb ff ff       	call   11ece <draw_bga_cursor>
   12350:	83 c4 10             	add    $0x10,%esp
   12353:	8b 8b 28 17 00 00    	mov    0x1728(%ebx),%ecx
   12359:	8b 93 8c ff ff ff    	mov    -0x74(%ebx),%edx
   1235f:	0f be 45 c4          	movsbl -0x3c(%ebp),%eax
   12363:	8b b3 84 ff ff ff    	mov    -0x7c(%ebx),%esi
   12369:	c1 e6 03             	shl    $0x3,%esi
   1236c:	89 f7                	mov    %esi,%edi
   1236e:	8b b3 20 17 00 00    	mov    0x1720(%ebx),%esi
   12374:	c1 e6 03             	shl    $0x3,%esi
   12377:	83 ec 0c             	sub    $0xc,%esp
   1237a:	51                   	push   %ecx
   1237b:	52                   	push   %edx
   1237c:	50                   	push   %eax
   1237d:	57                   	push   %edi
   1237e:	56                   	push   %esi
   1237f:	e8 64 eb 00 00       	call   20ee8 <_ZN4re369BgaDriver9draw_charEjjcjj>
   12384:	83 c4 20             	add    $0x20,%esp
   12387:	e9 87 00 00 00       	jmp    12413 <putchar+0x3c4>
   1238c:	80 7d d2 00          	cmpb   $0x0,-0x2e(%ebp)
   12390:	74 40                	je     123d2 <putchar+0x383>
   12392:	0f b6 83 24 17 00 00 	movzbl 0x1724(%ebx),%eax
   12399:	0f b6 c8             	movzbl %al,%ecx
   1239c:	0f b6 83 88 ff ff ff 	movzbl -0x78(%ebx),%eax
   123a3:	0f b6 d0             	movzbl %al,%edx
   123a6:	0f be 45 c4          	movsbl -0x3c(%ebp),%eax
   123aa:	8b b3 84 ff ff ff    	mov    -0x7c(%ebx),%esi
   123b0:	8d 3c f5 00 00 00 00 	lea    0x0(,%esi,8),%edi
   123b7:	8b b3 20 17 00 00    	mov    0x1720(%ebx),%esi
   123bd:	c1 e6 03             	shl    $0x3,%esi
   123c0:	83 ec 0c             	sub    $0xc,%esp
   123c3:	51                   	push   %ecx
   123c4:	52                   	push   %edx
   123c5:	50                   	push   %eax
   123c6:	57                   	push   %edi
   123c7:	56                   	push   %esi
   123c8:	e8 ed 3c 01 00       	call   260ba <_ZN4re363VGA9draw_charEiichh>
   123cd:	83 c4 20             	add    $0x20,%esp
   123d0:	eb 41                	jmp    12413 <putchar+0x3c4>
   123d2:	0f b6 45 c4          	movzbl -0x3c(%ebp),%eax
   123d6:	0f b6 d0             	movzbl %al,%edx
   123d9:	0f b6 83 89 ff ff ff 	movzbl -0x77(%ebx),%eax
   123e0:	0f b6 c0             	movzbl %al,%eax
   123e3:	c1 e0 08             	shl    $0x8,%eax
   123e6:	89 d6                	mov    %edx,%esi
   123e8:	09 c6                	or     %eax,%esi
   123ea:	8b 8b 90 ff ff ff    	mov    -0x70(%ebx),%ecx
   123f0:	8b 93 84 ff ff ff    	mov    -0x7c(%ebx),%edx
   123f6:	89 d0                	mov    %edx,%eax
   123f8:	c1 e0 02             	shl    $0x2,%eax
   123fb:	01 d0                	add    %edx,%eax
   123fd:	c1 e0 04             	shl    $0x4,%eax
   12400:	89 c2                	mov    %eax,%edx
   12402:	8b 83 20 17 00 00    	mov    0x1720(%ebx),%eax
   12408:	01 d0                	add    %edx,%eax
   1240a:	01 c0                	add    %eax,%eax
   1240c:	01 c8                	add    %ecx,%eax
   1240e:	89 f2                	mov    %esi,%edx
   12410:	66 89 10             	mov    %dx,(%eax)
   12413:	8b 83 20 17 00 00    	mov    0x1720(%ebx),%eax
   12419:	83 c0 01             	add    $0x1,%eax
   1241c:	89 83 20 17 00 00    	mov    %eax,0x1720(%ebx)
   12422:	8b 83 20 17 00 00    	mov    0x1720(%ebx),%eax
   12428:	39 45 e4             	cmp    %eax,-0x1c(%ebp)
   1242b:	7f 19                	jg     12446 <putchar+0x3f7>
   1242d:	c7 83 20 17 00 00 00 	movl   $0x0,0x1720(%ebx)
   12434:	00 00 00 
   12437:	8b 83 84 ff ff ff    	mov    -0x7c(%ebx),%eax
   1243d:	83 c0 01             	add    $0x1,%eax
   12440:	89 83 84 ff ff ff    	mov    %eax,-0x7c(%ebx)
   12446:	8b 83 84 ff ff ff    	mov    -0x7c(%ebx),%eax
   1244c:	39 45 e0             	cmp    %eax,-0x20(%ebp)
   1244f:	0f 8f 11 01 00 00    	jg     12566 <putchar+0x517>
   12455:	80 7d d3 00          	cmpb   $0x0,-0x2d(%ebp)
   12459:	74 25                	je     12480 <putchar+0x431>
   1245b:	8b 83 28 17 00 00    	mov    0x1728(%ebx),%eax
   12461:	83 ec 08             	sub    $0x8,%esp
   12464:	50                   	push   %eax
   12465:	6a 01                	push   $0x1
   12467:	e8 34 eb 00 00       	call   20fa0 <_ZN4re369BgaDriver6scrollEjj>
   1246c:	83 c4 10             	add    $0x10,%esp
   1246f:	8b 45 e0             	mov    -0x20(%ebp),%eax
   12472:	83 e8 01             	sub    $0x1,%eax
   12475:	89 83 84 ff ff ff    	mov    %eax,-0x7c(%ebx)
   1247b:	e9 e6 00 00 00       	jmp    12566 <putchar+0x517>
   12480:	80 7d d2 00          	cmpb   $0x0,-0x2e(%ebp)
   12484:	74 25                	je     124ab <putchar+0x45c>
   12486:	0f b6 83 24 17 00 00 	movzbl 0x1724(%ebx),%eax
   1248d:	0f b6 c0             	movzbl %al,%eax
   12490:	83 ec 0c             	sub    $0xc,%esp
   12493:	50                   	push   %eax
   12494:	e8 25 38 01 00       	call   25cbe <_ZN4re363VGA5clearEh>
   12499:	83 c4 10             	add    $0x10,%esp
   1249c:	c7 83 84 ff ff ff 00 	movl   $0x0,-0x7c(%ebx)
   124a3:	00 00 00 
   124a6:	e9 bb 00 00 00       	jmp    12566 <putchar+0x517>
   124ab:	c7 45 dc 01 00 00 00 	movl   $0x1,-0x24(%ebp)
   124b2:	eb 5f                	jmp    12513 <putchar+0x4c4>
   124b4:	c7 45 d8 00 00 00 00 	movl   $0x0,-0x28(%ebp)
   124bb:	eb 4a                	jmp    12507 <putchar+0x4b8>
   124bd:	8b 8b 90 ff ff ff    	mov    -0x70(%ebx),%ecx
   124c3:	8b 55 dc             	mov    -0x24(%ebp),%edx
   124c6:	89 d0                	mov    %edx,%eax
   124c8:	c1 e0 02             	shl    $0x2,%eax
   124cb:	01 d0                	add    %edx,%eax
   124cd:	c1 e0 04             	shl    $0x4,%eax
   124d0:	89 c2                	mov    %eax,%edx
   124d2:	8b 45 d8             	mov    -0x28(%ebp),%eax
   124d5:	01 d0                	add    %edx,%eax
   124d7:	01 c0                	add    %eax,%eax
   124d9:	01 c1                	add    %eax,%ecx
   124db:	8b b3 90 ff ff ff    	mov    -0x70(%ebx),%esi
   124e1:	8b 45 dc             	mov    -0x24(%ebp),%eax
   124e4:	8d 50 ff             	lea    -0x1(%eax),%edx
   124e7:	89 d0                	mov    %edx,%eax
   124e9:	c1 e0 02             	shl    $0x2,%eax
   124ec:	01 d0                	add    %edx,%eax
   124ee:	c1 e0 04             	shl    $0x4,%eax
   124f1:	89 c2                	mov    %eax,%edx
   124f3:	8b 45 d8             	mov    -0x28(%ebp),%eax
   124f6:	01 d0                	add    %edx,%eax
   124f8:	01 c0                	add    %eax,%eax
   124fa:	8d 14 06             	lea    (%esi,%eax,1),%edx
   124fd:	0f b7 01             	movzwl (%ecx),%eax
   12500:	66 89 02             	mov    %ax,(%edx)
   12503:	83 45 d8 01          	addl   $0x1,-0x28(%ebp)
   12507:	8b 45 d8             	mov    -0x28(%ebp),%eax
   1250a:	3b 45 e4             	cmp    -0x1c(%ebp),%eax
   1250d:	7c ae                	jl     124bd <putchar+0x46e>
   1250f:	83 45 dc 01          	addl   $0x1,-0x24(%ebp)
   12513:	8b 45 dc             	mov    -0x24(%ebp),%eax
   12516:	3b 45 e0             	cmp    -0x20(%ebp),%eax
   12519:	7c 99                	jl     124b4 <putchar+0x465>
   1251b:	c7 45 d4 00 00 00 00 	movl   $0x0,-0x2c(%ebp)
   12522:	eb 2e                	jmp    12552 <putchar+0x503>
   12524:	0f b6 83 89 ff ff ff 	movzbl -0x77(%ebx),%eax
   1252b:	0f b6 c0             	movzbl %al,%eax
   1252e:	c1 e0 08             	shl    $0x8,%eax
   12531:	83 c8 20             	or     $0x20,%eax
   12534:	89 c1                	mov    %eax,%ecx
   12536:	8b 83 90 ff ff ff    	mov    -0x70(%ebx),%eax
   1253c:	8b 55 d4             	mov    -0x2c(%ebp),%edx
   1253f:	81 c2 80 07 00 00    	add    $0x780,%edx
   12545:	01 d2                	add    %edx,%edx
   12547:	01 d0                	add    %edx,%eax
   12549:	89 ca                	mov    %ecx,%edx
   1254b:	66 89 10             	mov    %dx,(%eax)
   1254e:	83 45 d4 01          	addl   $0x1,-0x2c(%ebp)
   12552:	8b 45 d4             	mov    -0x2c(%ebp),%eax
   12555:	3b 45 e4             	cmp    -0x1c(%ebp),%eax
   12558:	7c ca                	jl     12524 <putchar+0x4d5>
   1255a:	8b 45 e0             	mov    -0x20(%ebp),%eax
   1255d:	83 e8 01             	sub    $0x1,%eax
   12560:	89 83 84 ff ff ff    	mov    %eax,-0x7c(%ebx)
   12566:	80 7d d3 00          	cmpb   $0x0,-0x2d(%ebp)
   1256a:	74 1d                	je     12589 <putchar+0x53a>
   1256c:	8b 93 84 ff ff ff    	mov    -0x7c(%ebx),%edx
   12572:	8b 83 20 17 00 00    	mov    0x1720(%ebx),%eax
   12578:	83 ec 04             	sub    $0x4,%esp
   1257b:	6a 01                	push   $0x1
   1257d:	52                   	push   %edx
   1257e:	50                   	push   %eax
   1257f:	e8 4a f9 ff ff       	call   11ece <draw_bga_cursor>
   12584:	83 c4 10             	add    $0x10,%esp
   12587:	eb 24                	jmp    125ad <putchar+0x55e>
   12589:	0f b6 45 d2          	movzbl -0x2e(%ebp),%eax
   1258d:	83 f0 01             	xor    $0x1,%eax
   12590:	84 c0                	test   %al,%al
   12592:	74 19                	je     125ad <putchar+0x55e>
   12594:	8b 93 84 ff ff ff    	mov    -0x7c(%ebx),%edx
   1259a:	8b 83 20 17 00 00    	mov    0x1720(%ebx),%eax
   125a0:	83 ec 08             	sub    $0x8,%esp
   125a3:	52                   	push   %edx
   125a4:	50                   	push   %eax
   125a5:	e8 ab f8 ff ff       	call   11e55 <update_vga_cursor>
   125aa:	83 c4 10             	add    $0x10,%esp
   125ad:	90                   	nop
   125ae:	8d 65 f4             	lea    -0xc(%ebp),%esp
   125b1:	5b                   	pop    %ebx
   125b2:	5e                   	pop    %esi
   125b3:	5f                   	pop    %edi
   125b4:	5d                   	pop    %ebp
   125b5:	c3                   	ret

000125b6 <print_uint_core>:
   125b6:	55                   	push   %ebp
   125b7:	89 e5                	mov    %esp,%ebp
   125b9:	53                   	push   %ebx
   125ba:	83 ec 54             	sub    $0x54,%esp
   125bd:	e8 e5 ea ff ff       	call   110a7 <__x86.get_pc_thunk.ax>
   125c2:	05 3a cb 01 00       	add    $0x1cb3a,%eax
   125c7:	8b 5d 10             	mov    0x10(%ebp),%ebx
   125ca:	8b 4d 14             	mov    0x14(%ebp),%ecx
   125cd:	8b 55 1c             	mov    0x1c(%ebp),%edx
   125d0:	8b 45 20             	mov    0x20(%ebp),%eax
   125d3:	88 5d b4             	mov    %bl,-0x4c(%ebp)
   125d6:	88 4d b0             	mov    %cl,-0x50(%ebp)
   125d9:	88 55 ac             	mov    %dl,-0x54(%ebp)
   125dc:	88 45 a8             	mov    %al,-0x58(%ebp)
   125df:	c7 45 f4 00 00 00 00 	movl   $0x0,-0xc(%ebp)
   125e6:	83 7d 08 00          	cmpl   $0x0,0x8(%ebp)
   125ea:	75 62                	jne    1264e <print_uint_core+0x98>
   125ec:	8b 45 f4             	mov    -0xc(%ebp),%eax
   125ef:	8d 50 01             	lea    0x1(%eax),%edx
   125f2:	89 55 f4             	mov    %edx,-0xc(%ebp)
   125f5:	c6 44 05 b8 30       	movb   $0x30,-0x48(%ebp,%eax,1)
   125fa:	eb 58                	jmp    12654 <print_uint_core+0x9e>
   125fc:	8b 4d 0c             	mov    0xc(%ebp),%ecx
   125ff:	8b 45 08             	mov    0x8(%ebp),%eax
   12602:	ba 00 00 00 00       	mov    $0x0,%edx
   12607:	f7 f1                	div    %ecx
   12609:	89 55 dc             	mov    %edx,-0x24(%ebp)
   1260c:	83 7d dc 09          	cmpl   $0x9,-0x24(%ebp)
   12610:	77 17                	ja     12629 <print_uint_core+0x73>
   12612:	8b 45 dc             	mov    -0x24(%ebp),%eax
   12615:	83 c0 30             	add    $0x30,%eax
   12618:	89 c1                	mov    %eax,%ecx
   1261a:	8b 45 f4             	mov    -0xc(%ebp),%eax
   1261d:	8d 50 01             	lea    0x1(%eax),%edx
   12620:	89 55 f4             	mov    %edx,-0xc(%ebp)
   12623:	88 4c 05 b8          	mov    %cl,-0x48(%ebp,%eax,1)
   12627:	eb 15                	jmp    1263e <print_uint_core+0x88>
   12629:	8b 45 dc             	mov    -0x24(%ebp),%eax
   1262c:	83 c0 37             	add    $0x37,%eax
   1262f:	89 c1                	mov    %eax,%ecx
   12631:	8b 45 f4             	mov    -0xc(%ebp),%eax
   12634:	8d 50 01             	lea    0x1(%eax),%edx
   12637:	89 55 f4             	mov    %edx,-0xc(%ebp)
   1263a:	88 4c 05 b8          	mov    %cl,-0x48(%ebp,%eax,1)
   1263e:	8b 5d 0c             	mov    0xc(%ebp),%ebx
   12641:	8b 45 08             	mov    0x8(%ebp),%eax
   12644:	ba 00 00 00 00       	mov    $0x0,%edx
   12649:	f7 f3                	div    %ebx
   1264b:	89 45 08             	mov    %eax,0x8(%ebp)
   1264e:	83 7d 08 00          	cmpl   $0x0,0x8(%ebp)
   12652:	75 a8                	jne    125fc <print_uint_core+0x46>
   12654:	80 7d b4 00          	cmpb   $0x0,-0x4c(%ebp)
   12658:	74 0d                	je     12667 <print_uint_core+0xb1>
   1265a:	80 7d b0 00          	cmpb   $0x0,-0x50(%ebp)
   1265e:	74 07                	je     12667 <print_uint_core+0xb1>
   12660:	b8 01 00 00 00       	mov    $0x1,%eax
   12665:	eb 05                	jmp    1266c <print_uint_core+0xb6>
   12667:	b8 00 00 00 00       	mov    $0x0,%eax
   1266c:	89 45 d8             	mov    %eax,-0x28(%ebp)
   1266f:	8b 45 18             	mov    0x18(%ebp),%eax
   12672:	2b 45 f4             	sub    -0xc(%ebp),%eax
   12675:	2b 45 d8             	sub    -0x28(%ebp),%eax
   12678:	89 45 f0             	mov    %eax,-0x10(%ebp)
   1267b:	83 7d f0 00          	cmpl   $0x0,-0x10(%ebp)
   1267f:	79 07                	jns    12688 <print_uint_core+0xd2>
   12681:	c7 45 f0 00 00 00 00 	movl   $0x0,-0x10(%ebp)
   12688:	0f b6 45 a8          	movzbl -0x58(%ebp),%eax
   1268c:	83 f0 01             	xor    $0x1,%eax
   1268f:	84 c0                	test   %al,%al
   12691:	74 28                	je     126bb <print_uint_core+0x105>
   12693:	80 7d ac 20          	cmpb   $0x20,-0x54(%ebp)
   12697:	75 22                	jne    126bb <print_uint_core+0x105>
   12699:	c7 45 ec 00 00 00 00 	movl   $0x0,-0x14(%ebp)
   126a0:	eb 11                	jmp    126b3 <print_uint_core+0xfd>
   126a2:	83 ec 0c             	sub    $0xc,%esp
   126a5:	6a 20                	push   $0x20
   126a7:	e8 a3 f9 ff ff       	call   1204f <putchar>
   126ac:	83 c4 10             	add    $0x10,%esp
   126af:	83 45 ec 01          	addl   $0x1,-0x14(%ebp)
   126b3:	8b 45 ec             	mov    -0x14(%ebp),%eax
   126b6:	3b 45 f0             	cmp    -0x10(%ebp),%eax
   126b9:	7c e7                	jl     126a2 <print_uint_core+0xec>
   126bb:	80 7d b4 00          	cmpb   $0x0,-0x4c(%ebp)
   126bf:	74 13                	je     126d4 <print_uint_core+0x11e>
   126c1:	80 7d b0 00          	cmpb   $0x0,-0x50(%ebp)
   126c5:	74 0d                	je     126d4 <print_uint_core+0x11e>
   126c7:	83 ec 0c             	sub    $0xc,%esp
   126ca:	6a 2d                	push   $0x2d
   126cc:	e8 7e f9 ff ff       	call   1204f <putchar>
   126d1:	83 c4 10             	add    $0x10,%esp
   126d4:	0f b6 45 a8          	movzbl -0x58(%ebp),%eax
   126d8:	83 f0 01             	xor    $0x1,%eax
   126db:	84 c0                	test   %al,%al
   126dd:	74 28                	je     12707 <print_uint_core+0x151>
   126df:	80 7d ac 30          	cmpb   $0x30,-0x54(%ebp)
   126e3:	75 22                	jne    12707 <print_uint_core+0x151>
   126e5:	c7 45 e8 00 00 00 00 	movl   $0x0,-0x18(%ebp)
   126ec:	eb 11                	jmp    126ff <print_uint_core+0x149>
   126ee:	83 ec 0c             	sub    $0xc,%esp
   126f1:	6a 30                	push   $0x30
   126f3:	e8 57 f9 ff ff       	call   1204f <putchar>
   126f8:	83 c4 10             	add    $0x10,%esp
   126fb:	83 45 e8 01          	addl   $0x1,-0x18(%ebp)
   126ff:	8b 45 e8             	mov    -0x18(%ebp),%eax
   12702:	3b 45 f0             	cmp    -0x10(%ebp),%eax
   12705:	7c e7                	jl     126ee <print_uint_core+0x138>
   12707:	8b 45 f4             	mov    -0xc(%ebp),%eax
   1270a:	83 e8 01             	sub    $0x1,%eax
   1270d:	89 45 e4             	mov    %eax,-0x1c(%ebp)
   12710:	eb 1e                	jmp    12730 <print_uint_core+0x17a>
   12712:	8d 55 b8             	lea    -0x48(%ebp),%edx
   12715:	8b 45 e4             	mov    -0x1c(%ebp),%eax
   12718:	01 d0                	add    %edx,%eax
   1271a:	0f b6 00             	movzbl (%eax),%eax
   1271d:	0f be c0             	movsbl %al,%eax
   12720:	83 ec 0c             	sub    $0xc,%esp
   12723:	50                   	push   %eax
   12724:	e8 26 f9 ff ff       	call   1204f <putchar>
   12729:	83 c4 10             	add    $0x10,%esp
   1272c:	83 6d e4 01          	subl   $0x1,-0x1c(%ebp)
   12730:	83 7d e4 00          	cmpl   $0x0,-0x1c(%ebp)
   12734:	79 dc                	jns    12712 <print_uint_core+0x15c>
   12736:	80 7d a8 00          	cmpb   $0x0,-0x58(%ebp)
   1273a:	74 22                	je     1275e <print_uint_core+0x1a8>
   1273c:	c7 45 e0 00 00 00 00 	movl   $0x0,-0x20(%ebp)
   12743:	eb 11                	jmp    12756 <print_uint_core+0x1a0>
   12745:	83 ec 0c             	sub    $0xc,%esp
   12748:	6a 20                	push   $0x20
   1274a:	e8 00 f9 ff ff       	call   1204f <putchar>
   1274f:	83 c4 10             	add    $0x10,%esp
   12752:	83 45 e0 01          	addl   $0x1,-0x20(%ebp)
   12756:	8b 45 e0             	mov    -0x20(%ebp),%eax
   12759:	3b 45 f0             	cmp    -0x10(%ebp),%eax
   1275c:	7c e7                	jl     12745 <print_uint_core+0x18f>
   1275e:	90                   	nop
   1275f:	8b 5d fc             	mov    -0x4(%ebp),%ebx
   12762:	c9                   	leave
   12763:	c3                   	ret

00012764 <print_uint>:
   12764:	55                   	push   %ebp
   12765:	89 e5                	mov    %esp,%ebp
   12767:	83 ec 18             	sub    $0x18,%esp
   1276a:	e8 38 e9 ff ff       	call   110a7 <__x86.get_pc_thunk.ax>
   1276f:	05 8d c9 01 00       	add    $0x1c98d,%eax
   12774:	8b 55 14             	mov    0x14(%ebp),%edx
   12777:	8b 45 18             	mov    0x18(%ebp),%eax
   1277a:	88 55 f4             	mov    %dl,-0xc(%ebp)
   1277d:	88 45 f0             	mov    %al,-0x10(%ebp)
   12780:	0f b6 55 f0          	movzbl -0x10(%ebp),%edx
   12784:	0f be 45 f4          	movsbl -0xc(%ebp),%eax
   12788:	83 ec 04             	sub    $0x4,%esp
   1278b:	52                   	push   %edx
   1278c:	50                   	push   %eax
   1278d:	ff 75 10             	push   0x10(%ebp)
   12790:	6a 00                	push   $0x0
   12792:	6a 00                	push   $0x0
   12794:	ff 75 0c             	push   0xc(%ebp)
   12797:	ff 75 08             	push   0x8(%ebp)
   1279a:	e8 17 fe ff ff       	call   125b6 <print_uint_core>
   1279f:	83 c4 20             	add    $0x20,%esp
   127a2:	90                   	nop
   127a3:	c9                   	leave
   127a4:	c3                   	ret

000127a5 <print_int>:
   127a5:	55                   	push   %ebp
   127a6:	89 e5                	mov    %esp,%ebp
   127a8:	83 ec 28             	sub    $0x28,%esp
   127ab:	e8 f7 e8 ff ff       	call   110a7 <__x86.get_pc_thunk.ax>
   127b0:	05 4c c9 01 00       	add    $0x1c94c,%eax
   127b5:	8b 55 10             	mov    0x10(%ebp),%edx
   127b8:	8b 45 14             	mov    0x14(%ebp),%eax
   127bb:	88 55 e4             	mov    %dl,-0x1c(%ebp)
   127be:	88 45 e0             	mov    %al,-0x20(%ebp)
   127c1:	8b 45 08             	mov    0x8(%ebp),%eax
   127c4:	c1 e8 1f             	shr    $0x1f,%eax
   127c7:	88 45 f7             	mov    %al,-0x9(%ebp)
   127ca:	80 7d f7 00          	cmpb   $0x0,-0x9(%ebp)
   127ce:	74 07                	je     127d7 <print_int+0x32>
   127d0:	8b 45 08             	mov    0x8(%ebp),%eax
   127d3:	f7 d8                	neg    %eax
   127d5:	eb 03                	jmp    127da <print_int+0x35>
   127d7:	8b 45 08             	mov    0x8(%ebp),%eax
   127da:	89 45 f0             	mov    %eax,-0x10(%ebp)
   127dd:	0f b6 4d e0          	movzbl -0x20(%ebp),%ecx
   127e1:	0f be 55 e4          	movsbl -0x1c(%ebp),%edx
   127e5:	0f b6 45 f7          	movzbl -0x9(%ebp),%eax
   127e9:	83 ec 04             	sub    $0x4,%esp
   127ec:	51                   	push   %ecx
   127ed:	52                   	push   %edx
   127ee:	ff 75 0c             	push   0xc(%ebp)
   127f1:	50                   	push   %eax
   127f2:	6a 01                	push   $0x1
   127f4:	6a 0a                	push   $0xa
   127f6:	ff 75 f0             	push   -0x10(%ebp)
   127f9:	e8 b8 fd ff ff       	call   125b6 <print_uint_core>
   127fe:	83 c4 20             	add    $0x20,%esp
   12801:	90                   	nop
   12802:	c9                   	leave
   12803:	c3                   	ret

00012804 <printf>:
   12804:	55                   	push   %ebp
   12805:	89 e5                	mov    %esp,%ebp
   12807:	56                   	push   %esi
   12808:	53                   	push   %ebx
   12809:	83 ec 20             	sub    $0x20,%esp
   1280c:	e8 9a e8 ff ff       	call   110ab <__x86.get_pc_thunk.bx>
   12811:	81 c3 eb c8 01 00    	add    $0x1c8eb,%ebx
   12817:	8d 45 0c             	lea    0xc(%ebp),%eax
   1281a:	89 45 d8             	mov    %eax,-0x28(%ebp)
   1281d:	e9 94 02 00 00       	jmp    12ab6 <.L138+0x57>
   12822:	8b 45 08             	mov    0x8(%ebp),%eax
   12825:	0f b6 00             	movzbl (%eax),%eax
   12828:	3c 25                	cmp    $0x25,%al
   1282a:	0f 85 5d 02 00 00    	jne    12a8d <.L138+0x2e>
   12830:	83 45 08 01          	addl   $0x1,0x8(%ebp)
   12834:	c6 45 f7 00          	movb   $0x0,-0x9(%ebp)
   12838:	c6 45 f6 20          	movb   $0x20,-0xa(%ebp)
   1283c:	c7 45 f0 00 00 00 00 	movl   $0x0,-0x10(%ebp)
   12843:	8b 45 08             	mov    0x8(%ebp),%eax
   12846:	0f b6 00             	movzbl (%eax),%eax
   12849:	3c 2d                	cmp    $0x2d,%al
   1284b:	75 08                	jne    12855 <printf+0x51>
   1284d:	c6 45 f7 01          	movb   $0x1,-0x9(%ebp)
   12851:	83 45 08 01          	addl   $0x1,0x8(%ebp)
   12855:	8b 45 08             	mov    0x8(%ebp),%eax
   12858:	0f b6 00             	movzbl (%eax),%eax
   1285b:	3c 30                	cmp    $0x30,%al
   1285d:	75 2d                	jne    1288c <printf+0x88>
   1285f:	c6 45 f6 30          	movb   $0x30,-0xa(%ebp)
   12863:	83 45 08 01          	addl   $0x1,0x8(%ebp)
   12867:	eb 23                	jmp    1288c <printf+0x88>
   12869:	8b 55 f0             	mov    -0x10(%ebp),%edx
   1286c:	89 d0                	mov    %edx,%eax
   1286e:	c1 e0 02             	shl    $0x2,%eax
   12871:	01 d0                	add    %edx,%eax
   12873:	01 c0                	add    %eax,%eax
   12875:	89 c2                	mov    %eax,%edx
   12877:	8b 45 08             	mov    0x8(%ebp),%eax
   1287a:	0f b6 00             	movzbl (%eax),%eax
   1287d:	0f be c0             	movsbl %al,%eax
   12880:	83 e8 30             	sub    $0x30,%eax
   12883:	01 d0                	add    %edx,%eax
   12885:	89 45 f0             	mov    %eax,-0x10(%ebp)
   12888:	83 45 08 01          	addl   $0x1,0x8(%ebp)
   1288c:	8b 45 08             	mov    0x8(%ebp),%eax
   1288f:	0f b6 00             	movzbl (%eax),%eax
   12892:	3c 2f                	cmp    $0x2f,%al
   12894:	7e 0a                	jle    128a0 <printf+0x9c>
   12896:	8b 45 08             	mov    0x8(%ebp),%eax
   12899:	0f b6 00             	movzbl (%eax),%eax
   1289c:	3c 39                	cmp    $0x39,%al
   1289e:	7e c9                	jle    12869 <printf+0x65>
   128a0:	8b 45 08             	mov    0x8(%ebp),%eax
   128a3:	0f b6 00             	movzbl (%eax),%eax
   128a6:	0f be c0             	movsbl %al,%eax
   128a9:	83 f8 25             	cmp    $0x25,%eax
   128ac:	0f 84 9e 01 00 00    	je     12a50 <.L144+0x1c>
   128b2:	83 f8 25             	cmp    $0x25,%eax
   128b5:	0f 8c a4 01 00 00    	jl     12a5f <.L138>
   128bb:	83 f8 78             	cmp    $0x78,%eax
   128be:	0f 8f 9b 01 00 00    	jg     12a5f <.L138>
   128c4:	83 f8 58             	cmp    $0x58,%eax
   128c7:	0f 8c 92 01 00 00    	jl     12a5f <.L138>
   128cd:	83 e8 58             	sub    $0x58,%eax
   128d0:	83 f8 20             	cmp    $0x20,%eax
   128d3:	0f 87 86 01 00 00    	ja     12a5f <.L138>
   128d9:	c1 e0 02             	shl    $0x2,%eax
   128dc:	8b 84 18 00 93 ff ff 	mov    -0x6d00(%eax,%ebx,1),%eax
   128e3:	01 d8                	add    %ebx,%eax
   128e5:	ff e0                	jmp    *%eax

000128e7 <.L143>:
   128e7:	0f b6 4d f7          	movzbl -0x9(%ebp),%ecx
   128eb:	0f be 55 f6          	movsbl -0xa(%ebp),%edx
   128ef:	8b 45 d8             	mov    -0x28(%ebp),%eax
   128f2:	8d 70 04             	lea    0x4(%eax),%esi
   128f5:	89 75 d8             	mov    %esi,-0x28(%ebp)
   128f8:	8b 00                	mov    (%eax),%eax
   128fa:	51                   	push   %ecx
   128fb:	52                   	push   %edx
   128fc:	ff 75 f0             	push   -0x10(%ebp)
   128ff:	50                   	push   %eax
   12900:	e8 a0 fe ff ff       	call   127a5 <print_int>
   12905:	83 c4 10             	add    $0x10,%esp
   12908:	e9 9b 01 00 00       	jmp    12aa8 <.L138+0x49>

0001290d <.L139>:
   1290d:	0f b6 4d f7          	movzbl -0x9(%ebp),%ecx
   12911:	0f be 55 f6          	movsbl -0xa(%ebp),%edx
   12915:	8b 45 d8             	mov    -0x28(%ebp),%eax
   12918:	8d 70 04             	lea    0x4(%eax),%esi
   1291b:	89 75 d8             	mov    %esi,-0x28(%ebp)
   1291e:	8b 00                	mov    (%eax),%eax
   12920:	83 ec 0c             	sub    $0xc,%esp
   12923:	51                   	push   %ecx
   12924:	52                   	push   %edx
   12925:	ff 75 f0             	push   -0x10(%ebp)
   12928:	6a 10                	push   $0x10
   1292a:	50                   	push   %eax
   1292b:	e8 34 fe ff ff       	call   12764 <print_uint>
   12930:	83 c4 20             	add    $0x20,%esp
   12933:	e9 70 01 00 00       	jmp    12aa8 <.L138+0x49>

00012938 <.L141>:
   12938:	0f b6 4d f7          	movzbl -0x9(%ebp),%ecx
   1293c:	0f be 55 f6          	movsbl -0xa(%ebp),%edx
   12940:	8b 45 d8             	mov    -0x28(%ebp),%eax
   12943:	8d 70 04             	lea    0x4(%eax),%esi
   12946:	89 75 d8             	mov    %esi,-0x28(%ebp)
   12949:	8b 00                	mov    (%eax),%eax
   1294b:	83 ec 0c             	sub    $0xc,%esp
   1294e:	51                   	push   %ecx
   1294f:	52                   	push   %edx
   12950:	ff 75 f0             	push   -0x10(%ebp)
   12953:	6a 0a                	push   $0xa
   12955:	50                   	push   %eax
   12956:	e8 09 fe ff ff       	call   12764 <print_uint>
   1295b:	83 c4 20             	add    $0x20,%esp
   1295e:	e9 45 01 00 00       	jmp    12aa8 <.L138+0x49>

00012963 <.L142>:
   12963:	8b 45 d8             	mov    -0x28(%ebp),%eax
   12966:	8d 50 04             	lea    0x4(%eax),%edx
   12969:	89 55 d8             	mov    %edx,-0x28(%ebp)
   1296c:	8b 00                	mov    (%eax),%eax
   1296e:	89 45 ec             	mov    %eax,-0x14(%ebp)
   12971:	83 7d ec 00          	cmpl   $0x0,-0x14(%ebp)
   12975:	75 09                	jne    12980 <.L142+0x1d>
   12977:	8d 83 f8 92 ff ff    	lea    -0x6d08(%ebx),%eax
   1297d:	89 45 ec             	mov    %eax,-0x14(%ebp)
   12980:	c7 45 e8 00 00 00 00 	movl   $0x0,-0x18(%ebp)
   12987:	eb 04                	jmp    1298d <.L142+0x2a>
   12989:	83 45 e8 01          	addl   $0x1,-0x18(%ebp)
   1298d:	8b 55 e8             	mov    -0x18(%ebp),%edx
   12990:	8b 45 ec             	mov    -0x14(%ebp),%eax
   12993:	01 d0                	add    %edx,%eax
   12995:	0f b6 00             	movzbl (%eax),%eax
   12998:	84 c0                	test   %al,%al
   1299a:	75 ed                	jne    12989 <.L142+0x26>
   1299c:	8b 45 f0             	mov    -0x10(%ebp),%eax
   1299f:	2b 45 e8             	sub    -0x18(%ebp),%eax
   129a2:	89 45 e4             	mov    %eax,-0x1c(%ebp)
   129a5:	83 7d e4 00          	cmpl   $0x0,-0x1c(%ebp)
   129a9:	79 07                	jns    129b2 <.L142+0x4f>
   129ab:	c7 45 e4 00 00 00 00 	movl   $0x0,-0x1c(%ebp)
   129b2:	0f b6 45 f7          	movzbl -0x9(%ebp),%eax
   129b6:	83 f0 01             	xor    $0x1,%eax
   129b9:	84 c0                	test   %al,%al
   129bb:	74 3f                	je     129fc <.L142+0x99>
   129bd:	c7 45 e0 00 00 00 00 	movl   $0x0,-0x20(%ebp)
   129c4:	eb 11                	jmp    129d7 <.L142+0x74>
   129c6:	83 ec 0c             	sub    $0xc,%esp
   129c9:	6a 20                	push   $0x20
   129cb:	e8 7f f6 ff ff       	call   1204f <putchar>
   129d0:	83 c4 10             	add    $0x10,%esp
   129d3:	83 45 e0 01          	addl   $0x1,-0x20(%ebp)
   129d7:	8b 45 e0             	mov    -0x20(%ebp),%eax
   129da:	3b 45 e4             	cmp    -0x1c(%ebp),%eax
   129dd:	7c e7                	jl     129c6 <.L142+0x63>
   129df:	eb 1b                	jmp    129fc <.L142+0x99>
   129e1:	8b 45 ec             	mov    -0x14(%ebp),%eax
   129e4:	8d 50 01             	lea    0x1(%eax),%edx
   129e7:	89 55 ec             	mov    %edx,-0x14(%ebp)
   129ea:	0f b6 00             	movzbl (%eax),%eax
   129ed:	0f be c0             	movsbl %al,%eax
   129f0:	83 ec 0c             	sub    $0xc,%esp
   129f3:	50                   	push   %eax
   129f4:	e8 56 f6 ff ff       	call   1204f <putchar>
   129f9:	83 c4 10             	add    $0x10,%esp
   129fc:	8b 45 ec             	mov    -0x14(%ebp),%eax
   129ff:	0f b6 00             	movzbl (%eax),%eax
   12a02:	84 c0                	test   %al,%al
   12a04:	75 db                	jne    129e1 <.L142+0x7e>
   12a06:	80 7d f7 00          	cmpb   $0x0,-0x9(%ebp)
   12a0a:	0f 84 94 00 00 00    	je     12aa4 <.L138+0x45>
   12a10:	c7 45 dc 00 00 00 00 	movl   $0x0,-0x24(%ebp)
   12a17:	eb 11                	jmp    12a2a <.L142+0xc7>
   12a19:	83 ec 0c             	sub    $0xc,%esp
   12a1c:	6a 20                	push   $0x20
   12a1e:	e8 2c f6 ff ff       	call   1204f <putchar>
   12a23:	83 c4 10             	add    $0x10,%esp
   12a26:	83 45 dc 01          	addl   $0x1,-0x24(%ebp)
   12a2a:	8b 45 dc             	mov    -0x24(%ebp),%eax
   12a2d:	3b 45 e4             	cmp    -0x1c(%ebp),%eax
   12a30:	7c e7                	jl     12a19 <.L142+0xb6>
   12a32:	eb 70                	jmp    12aa4 <.L138+0x45>

00012a34 <.L144>:
   12a34:	8b 45 d8             	mov    -0x28(%ebp),%eax
   12a37:	8d 50 04             	lea    0x4(%eax),%edx
   12a3a:	89 55 d8             	mov    %edx,-0x28(%ebp)
   12a3d:	8b 00                	mov    (%eax),%eax
   12a3f:	0f be c0             	movsbl %al,%eax
   12a42:	83 ec 0c             	sub    $0xc,%esp
   12a45:	50                   	push   %eax
   12a46:	e8 04 f6 ff ff       	call   1204f <putchar>
   12a4b:	83 c4 10             	add    $0x10,%esp
   12a4e:	eb 58                	jmp    12aa8 <.L138+0x49>
   12a50:	83 ec 0c             	sub    $0xc,%esp
   12a53:	6a 25                	push   $0x25
   12a55:	e8 f5 f5 ff ff       	call   1204f <putchar>
   12a5a:	83 c4 10             	add    $0x10,%esp
   12a5d:	eb 49                	jmp    12aa8 <.L138+0x49>

00012a5f <.L138>:
   12a5f:	83 ec 0c             	sub    $0xc,%esp
   12a62:	6a 25                	push   $0x25
   12a64:	e8 e6 f5 ff ff       	call   1204f <putchar>
   12a69:	83 c4 10             	add    $0x10,%esp
   12a6c:	8b 45 08             	mov    0x8(%ebp),%eax
   12a6f:	0f b6 00             	movzbl (%eax),%eax
   12a72:	84 c0                	test   %al,%al
   12a74:	74 31                	je     12aa7 <.L138+0x48>
   12a76:	8b 45 08             	mov    0x8(%ebp),%eax
   12a79:	0f b6 00             	movzbl (%eax),%eax
   12a7c:	0f be c0             	movsbl %al,%eax
   12a7f:	83 ec 0c             	sub    $0xc,%esp
   12a82:	50                   	push   %eax
   12a83:	e8 c7 f5 ff ff       	call   1204f <putchar>
   12a88:	83 c4 10             	add    $0x10,%esp
   12a8b:	eb 1a                	jmp    12aa7 <.L138+0x48>
   12a8d:	8b 45 08             	mov    0x8(%ebp),%eax
   12a90:	0f b6 00             	movzbl (%eax),%eax
   12a93:	0f be c0             	movsbl %al,%eax
   12a96:	83 ec 0c             	sub    $0xc,%esp
   12a99:	50                   	push   %eax
   12a9a:	e8 b0 f5 ff ff       	call   1204f <putchar>
   12a9f:	83 c4 10             	add    $0x10,%esp
   12aa2:	eb 04                	jmp    12aa8 <.L138+0x49>
   12aa4:	90                   	nop
   12aa5:	eb 01                	jmp    12aa8 <.L138+0x49>
   12aa7:	90                   	nop
   12aa8:	8b 45 08             	mov    0x8(%ebp),%eax
   12aab:	0f b6 00             	movzbl (%eax),%eax
   12aae:	84 c0                	test   %al,%al
   12ab0:	74 04                	je     12ab6 <.L138+0x57>
   12ab2:	83 45 08 01          	addl   $0x1,0x8(%ebp)
   12ab6:	8b 45 08             	mov    0x8(%ebp),%eax
   12ab9:	0f b6 00             	movzbl (%eax),%eax
   12abc:	84 c0                	test   %al,%al
   12abe:	0f 85 5e fd ff ff    	jne    12822 <printf+0x1e>
   12ac4:	90                   	nop
   12ac5:	90                   	nop
   12ac6:	8d 65 f8             	lea    -0x8(%ebp),%esp
   12ac9:	5b                   	pop    %ebx
   12aca:	5e                   	pop    %esi
   12acb:	5d                   	pop    %ebp
   12acc:	c3                   	ret

00012acd <_ZN4re369BgaDriver9get_widthEv>:
   12acd:	55                   	push   %ebp
   12ace:	89 e5                	mov    %esp,%ebp
   12ad0:	e8 d2 e5 ff ff       	call   110a7 <__x86.get_pc_thunk.ax>
   12ad5:	05 27 c6 01 00       	add    $0x1c627,%eax
   12ada:	c7 c0 b6 7c 07 00    	mov    $0x77cb6,%eax
   12ae0:	0f b7 00             	movzwl (%eax),%eax
   12ae3:	5d                   	pop    %ebp
   12ae4:	c3                   	ret

00012ae5 <_ZN4re369BgaDriver10get_heightEv>:
   12ae5:	55                   	push   %ebp
   12ae6:	89 e5                	mov    %esp,%ebp
   12ae8:	e8 ba e5 ff ff       	call   110a7 <__x86.get_pc_thunk.ax>
   12aed:	05 0f c6 01 00       	add    $0x1c60f,%eax
   12af2:	c7 c0 b8 7c 07 00    	mov    $0x77cb8,%eax
   12af8:	0f b7 00             	movzwl (%eax),%eax
   12afb:	5d                   	pop    %ebp
   12afc:	c3                   	ret

00012afd <_sbrk>:
   12afd:	55                   	push   %ebp
   12afe:	89 e5                	mov    %esp,%ebp
   12b00:	83 ec 10             	sub    $0x10,%esp
   12b03:	e8 9f e5 ff ff       	call   110a7 <__x86.get_pc_thunk.ax>
   12b08:	05 f4 c5 01 00       	add    $0x1c5f4,%eax
   12b0d:	8b 90 94 ff ff ff    	mov    -0x6c(%eax),%edx
   12b13:	89 55 fc             	mov    %edx,-0x4(%ebp)
   12b16:	83 7d 08 00          	cmpl   $0x0,0x8(%ebp)
   12b1a:	75 08                	jne    12b24 <_sbrk+0x27>
   12b1c:	8b 80 94 ff ff ff    	mov    -0x6c(%eax),%eax
   12b22:	eb 4a                	jmp    12b6e <_sbrk+0x71>
   12b24:	83 7d 08 00          	cmpl   $0x0,0x8(%ebp)
   12b28:	79 16                	jns    12b40 <_sbrk+0x43>
   12b2a:	8b 88 94 ff ff ff    	mov    -0x6c(%eax),%ecx
   12b30:	8b 55 08             	mov    0x8(%ebp),%edx
   12b33:	01 ca                	add    %ecx,%edx
   12b35:	89 90 94 ff ff ff    	mov    %edx,-0x6c(%eax)
   12b3b:	8b 45 fc             	mov    -0x4(%ebp),%eax
   12b3e:	eb 2e                	jmp    12b6e <_sbrk+0x71>
   12b40:	8b 88 94 ff ff ff    	mov    -0x6c(%eax),%ecx
   12b46:	8b 55 08             	mov    0x8(%ebp),%edx
   12b49:	01 ca                	add    %ecx,%edx
   12b4b:	81 fa 00 00 00 02    	cmp    $0x2000000,%edx
   12b51:	76 07                	jbe    12b5a <_sbrk+0x5d>
   12b53:	b8 ff ff ff ff       	mov    $0xffffffff,%eax
   12b58:	eb 14                	jmp    12b6e <_sbrk+0x71>
   12b5a:	8b 88 94 ff ff ff    	mov    -0x6c(%eax),%ecx
   12b60:	8b 55 08             	mov    0x8(%ebp),%edx
   12b63:	01 ca                	add    %ecx,%edx
   12b65:	89 90 94 ff ff ff    	mov    %edx,-0x6c(%eax)
   12b6b:	8b 45 fc             	mov    -0x4(%ebp),%eax
   12b6e:	c9                   	leave
   12b6f:	c3                   	ret

00012b70 <_close>:
   12b70:	55                   	push   %ebp
   12b71:	89 e5                	mov    %esp,%ebp
   12b73:	e8 2f e5 ff ff       	call   110a7 <__x86.get_pc_thunk.ax>
   12b78:	05 84 c5 01 00       	add    $0x1c584,%eax
   12b7d:	b8 ff ff ff ff       	mov    $0xffffffff,%eax
   12b82:	5d                   	pop    %ebp
   12b83:	c3                   	ret

00012b84 <_fstat>:
   12b84:	55                   	push   %ebp
   12b85:	89 e5                	mov    %esp,%ebp
   12b87:	e8 1b e5 ff ff       	call   110a7 <__x86.get_pc_thunk.ax>
   12b8c:	05 70 c5 01 00       	add    $0x1c570,%eax
   12b91:	b8 00 00 00 00       	mov    $0x0,%eax
   12b96:	5d                   	pop    %ebp
   12b97:	c3                   	ret

00012b98 <_isatty>:
   12b98:	55                   	push   %ebp
   12b99:	89 e5                	mov    %esp,%ebp
   12b9b:	e8 07 e5 ff ff       	call   110a7 <__x86.get_pc_thunk.ax>
   12ba0:	05 5c c5 01 00       	add    $0x1c55c,%eax
   12ba5:	b8 01 00 00 00       	mov    $0x1,%eax
   12baa:	5d                   	pop    %ebp
   12bab:	c3                   	ret

00012bac <_lseek>:
   12bac:	55                   	push   %ebp
   12bad:	89 e5                	mov    %esp,%ebp
   12baf:	e8 f3 e4 ff ff       	call   110a7 <__x86.get_pc_thunk.ax>
   12bb4:	05 48 c5 01 00       	add    $0x1c548,%eax
   12bb9:	b8 00 00 00 00       	mov    $0x0,%eax
   12bbe:	5d                   	pop    %ebp
   12bbf:	c3                   	ret

00012bc0 <_read>:
   12bc0:	55                   	push   %ebp
   12bc1:	89 e5                	mov    %esp,%ebp
   12bc3:	e8 df e4 ff ff       	call   110a7 <__x86.get_pc_thunk.ax>
   12bc8:	05 34 c5 01 00       	add    $0x1c534,%eax
   12bcd:	b8 00 00 00 00       	mov    $0x0,%eax
   12bd2:	5d                   	pop    %ebp
   12bd3:	c3                   	ret

00012bd4 <_write>:
   12bd4:	55                   	push   %ebp
   12bd5:	89 e5                	mov    %esp,%ebp
   12bd7:	53                   	push   %ebx
   12bd8:	83 ec 14             	sub    $0x14,%esp
   12bdb:	e8 cb e4 ff ff       	call   110ab <__x86.get_pc_thunk.bx>
   12be0:	81 c3 1c c5 01 00    	add    $0x1c51c,%ebx
   12be6:	83 7d 08 01          	cmpl   $0x1,0x8(%ebp)
   12bea:	74 06                	je     12bf2 <_write+0x1e>
   12bec:	83 7d 08 02          	cmpl   $0x2,0x8(%ebp)
   12bf0:	75 34                	jne    12c26 <_write+0x52>
   12bf2:	c7 45 f4 00 00 00 00 	movl   $0x0,-0xc(%ebp)
   12bf9:	eb 1e                	jmp    12c19 <_write+0x45>
   12bfb:	8b 55 f4             	mov    -0xc(%ebp),%edx
   12bfe:	8b 45 0c             	mov    0xc(%ebp),%eax
   12c01:	01 d0                	add    %edx,%eax
   12c03:	0f b6 00             	movzbl (%eax),%eax
   12c06:	0f be c0             	movsbl %al,%eax
   12c09:	83 ec 0c             	sub    $0xc,%esp
   12c0c:	50                   	push   %eax
   12c0d:	e8 3d f4 ff ff       	call   1204f <putchar>
   12c12:	83 c4 10             	add    $0x10,%esp
   12c15:	83 45 f4 01          	addl   $0x1,-0xc(%ebp)
   12c19:	8b 45 f4             	mov    -0xc(%ebp),%eax
   12c1c:	3b 45 10             	cmp    0x10(%ebp),%eax
   12c1f:	7c da                	jl     12bfb <_write+0x27>
   12c21:	8b 45 10             	mov    0x10(%ebp),%eax
   12c24:	eb 05                	jmp    12c2b <_write+0x57>
   12c26:	b8 ff ff ff ff       	mov    $0xffffffff,%eax
   12c2b:	8b 5d fc             	mov    -0x4(%ebp),%ebx
   12c2e:	c9                   	leave
   12c2f:	c3                   	ret

00012c30 <_exit>:
   12c30:	55                   	push   %ebp
   12c31:	89 e5                	mov    %esp,%ebp
   12c33:	e8 6f e4 ff ff       	call   110a7 <__x86.get_pc_thunk.ax>
   12c38:	05 c4 c4 01 00       	add    $0x1c4c4,%eax
   12c3d:	fa                   	cli
   12c3e:	f4                   	hlt
   12c3f:	eb fc                	jmp    12c3d <_exit+0xd>

00012c41 <_getpid>:
   12c41:	55                   	push   %ebp
   12c42:	89 e5                	mov    %esp,%ebp
   12c44:	e8 5e e4 ff ff       	call   110a7 <__x86.get_pc_thunk.ax>
   12c49:	05 b3 c4 01 00       	add    $0x1c4b3,%eax
   12c4e:	b8 01 00 00 00       	mov    $0x1,%eax
   12c53:	5d                   	pop    %ebp
   12c54:	c3                   	ret

00012c55 <_kill>:
   12c55:	55                   	push   %ebp
   12c56:	89 e5                	mov    %esp,%ebp
   12c58:	e8 4a e4 ff ff       	call   110a7 <__x86.get_pc_thunk.ax>
   12c5d:	05 9f c4 01 00       	add    $0x1c49f,%eax
   12c62:	b8 ff ff ff ff       	mov    $0xffffffff,%eax
   12c67:	5d                   	pop    %ebp
   12c68:	c3                   	ret
   12c69:	90                   	nop

00012c6a <_ZN4re36L3inbEt>:
   12c6a:	55                   	push   %ebp
   12c6b:	89 e5                	mov    %esp,%ebp
   12c6d:	83 ec 14             	sub    $0x14,%esp
   12c70:	e8 32 e4 ff ff       	call   110a7 <__x86.get_pc_thunk.ax>
   12c75:	05 87 c4 01 00       	add    $0x1c487,%eax
   12c7a:	8b 45 08             	mov    0x8(%ebp),%eax
   12c7d:	66 89 45 ec          	mov    %ax,-0x14(%ebp)
   12c81:	0f b7 45 ec          	movzwl -0x14(%ebp),%eax
   12c85:	89 c2                	mov    %eax,%edx
   12c87:	ec                   	in     (%dx),%al
   12c88:	88 45 ff             	mov    %al,-0x1(%ebp)
   12c8b:	0f b6 45 ff          	movzbl -0x1(%ebp),%eax
   12c8f:	c9                   	leave
   12c90:	c3                   	ret
   12c91:	90                   	nop

00012c92 <_ZN4re3614KeyboardDriver4initEv>:
   12c92:	55                   	push   %ebp
   12c93:	89 e5                	mov    %esp,%ebp
   12c95:	53                   	push   %ebx
   12c96:	83 ec 04             	sub    $0x4,%esp
   12c99:	e8 0d e4 ff ff       	call   110ab <__x86.get_pc_thunk.bx>
   12c9e:	81 c3 5e c4 01 00    	add    $0x1c45e,%ebx
   12ca4:	c6 83 44 17 00 00 00 	movb   $0x0,0x1744(%ebx)
   12cab:	c6 83 45 17 00 00 00 	movb   $0x0,0x1745(%ebx)
   12cb2:	c6 83 46 17 00 00 00 	movb   $0x0,0x1746(%ebx)
   12cb9:	c6 83 47 17 00 00 00 	movb   $0x0,0x1747(%ebx)
   12cc0:	c7 83 48 17 00 00 00 	movl   $0x0,0x1748(%ebx)
   12cc7:	00 00 00 
   12cca:	c7 83 64 18 00 00 00 	movl   $0x0,0x1864(%ebx)
   12cd1:	00 00 00 
   12cd4:	c7 83 68 18 00 00 00 	movl   $0x0,0x1868(%ebx)
   12cdb:	00 00 00 
   12cde:	c6 83 6c 18 00 00 00 	movb   $0x0,0x186c(%ebx)
   12ce5:	83 ec 0c             	sub    $0xc,%esp
   12ce8:	8d 83 84 95 ff ff    	lea    -0x6a7c(%ebx),%eax
   12cee:	50                   	push   %eax
   12cef:	e8 58 1a 00 00       	call   1474c <_ZN4re3611EventSystem14create_channelEPKc>
   12cf4:	83 c4 10             	add    $0x10,%esp
   12cf7:	89 83 98 ff ff ff    	mov    %eax,-0x68(%ebx)
   12cfd:	90                   	nop
   12cfe:	8b 5d fc             	mov    -0x4(%ebp),%ebx
   12d01:	c9                   	leave
   12d02:	c3                   	ret
   12d03:	90                   	nop

00012d04 <_ZN4re3614KeyboardDriver16handle_interruptEv>:
   12d04:	55                   	push   %ebp
   12d05:	89 e5                	mov    %esp,%ebp
   12d07:	83 ec 18             	sub    $0x18,%esp
   12d0a:	e8 98 e3 ff ff       	call   110a7 <__x86.get_pc_thunk.ax>
   12d0f:	05 ed c3 01 00       	add    $0x1c3ed,%eax
   12d14:	6a 60                	push   $0x60
   12d16:	e8 4f ff ff ff       	call   12c6a <_ZN4re36L3inbEt>
   12d1b:	83 c4 04             	add    $0x4,%esp
   12d1e:	88 45 f7             	mov    %al,-0x9(%ebp)
   12d21:	0f b6 45 f7          	movzbl -0x9(%ebp),%eax
   12d25:	83 ec 0c             	sub    $0xc,%esp
   12d28:	50                   	push   %eax
   12d29:	e8 06 00 00 00       	call   12d34 <_ZN4re3614KeyboardDriver16process_scancodeEh>
   12d2e:	83 c4 10             	add    $0x10,%esp
   12d31:	90                   	nop
   12d32:	c9                   	leave
   12d33:	c3                   	ret

00012d34 <_ZN4re3614KeyboardDriver16process_scancodeEh>:
   12d34:	55                   	push   %ebp
   12d35:	89 e5                	mov    %esp,%ebp
   12d37:	53                   	push   %ebx
   12d38:	83 ec 34             	sub    $0x34,%esp
   12d3b:	e8 6b e3 ff ff       	call   110ab <__x86.get_pc_thunk.bx>
   12d40:	81 c3 bc c3 01 00    	add    $0x1c3bc,%ebx
   12d46:	8b 45 08             	mov    0x8(%ebp),%eax
   12d49:	88 45 d4             	mov    %al,-0x2c(%ebp)
   12d4c:	80 7d d4 e0          	cmpb   $0xe0,-0x2c(%ebp)
   12d50:	75 0c                	jne    12d5e <_ZN4re3614KeyboardDriver16process_scancodeEh+0x2a>
   12d52:	c6 83 6c 18 00 00 01 	movb   $0x1,0x186c(%ebx)
   12d59:	e9 7f 03 00 00       	jmp    130dd <_ZN4re3614KeyboardDriver16process_scancodeEh+0x3a9>
   12d5e:	0f b6 83 6c 18 00 00 	movzbl 0x186c(%ebx),%eax
   12d65:	84 c0                	test   %al,%al
   12d67:	0f 84 92 00 00 00    	je     12dff <_ZN4re3614KeyboardDriver16process_scancodeEh+0xcb>
   12d6d:	c6 83 6c 18 00 00 00 	movb   $0x0,0x186c(%ebx)
   12d74:	0f b6 45 d4          	movzbl -0x2c(%ebp),%eax
   12d78:	84 c0                	test   %al,%al
   12d7a:	0f 88 56 03 00 00    	js     130d6 <_ZN4re3614KeyboardDriver16process_scancodeEh+0x3a2>
   12d80:	c6 45 f7 00          	movb   $0x0,-0x9(%ebp)
   12d84:	80 7d d4 48          	cmpb   $0x48,-0x2c(%ebp)
   12d88:	75 04                	jne    12d8e <_ZN4re3614KeyboardDriver16process_scancodeEh+0x5a>
   12d8a:	c6 45 f7 80          	movb   $0x80,-0x9(%ebp)
   12d8e:	80 7d d4 50          	cmpb   $0x50,-0x2c(%ebp)
   12d92:	75 04                	jne    12d98 <_ZN4re3614KeyboardDriver16process_scancodeEh+0x64>
   12d94:	c6 45 f7 81          	movb   $0x81,-0x9(%ebp)
   12d98:	80 7d f7 00          	cmpb   $0x0,-0x9(%ebp)
   12d9c:	0f 84 37 03 00 00    	je     130d9 <_ZN4re3614KeyboardDriver16process_scancodeEh+0x3a5>
   12da2:	8b 83 64 18 00 00    	mov    0x1864(%ebx),%eax
   12da8:	8d 50 01             	lea    0x1(%eax),%edx
   12dab:	89 d0                	mov    %edx,%eax
   12dad:	c1 f8 1f             	sar    $0x1f,%eax
   12db0:	c1 e8 18             	shr    $0x18,%eax
   12db3:	01 c2                	add    %eax,%edx
   12db5:	0f b6 d2             	movzbl %dl,%edx
   12db8:	29 c2                	sub    %eax,%edx
   12dba:	89 55 dc             	mov    %edx,-0x24(%ebp)
   12dbd:	8b 83 68 18 00 00    	mov    0x1868(%ebx),%eax
   12dc3:	39 45 dc             	cmp    %eax,-0x24(%ebp)
   12dc6:	0f 84 0d 03 00 00    	je     130d9 <_ZN4re3614KeyboardDriver16process_scancodeEh+0x3a5>
   12dcc:	8b 83 64 18 00 00    	mov    0x1864(%ebx),%eax
   12dd2:	0f b6 55 f7          	movzbl -0x9(%ebp),%edx
   12dd6:	88 94 03 64 17 00 00 	mov    %dl,0x1764(%ebx,%eax,1)
   12ddd:	8b 45 dc             	mov    -0x24(%ebp),%eax
   12de0:	89 83 64 18 00 00    	mov    %eax,0x1864(%ebx)
   12de6:	8b 83 98 ff ff ff    	mov    -0x68(%ebx),%eax
   12dec:	83 ec 08             	sub    $0x8,%esp
   12def:	6a 01                	push   $0x1
   12df1:	50                   	push   %eax
   12df2:	e8 41 1b 00 00       	call   14938 <_ZN4re3611EventSystem4pushEij>
   12df7:	83 c4 10             	add    $0x10,%esp
   12dfa:	e9 da 02 00 00       	jmp    130d9 <_ZN4re3614KeyboardDriver16process_scancodeEh+0x3a5>
   12dff:	0f b6 45 d4          	movzbl -0x2c(%ebp),%eax
   12e03:	c0 e8 07             	shr    $0x7,%al
   12e06:	88 45 f4             	mov    %al,-0xc(%ebp)
   12e09:	0f b6 45 d4          	movzbl -0x2c(%ebp),%eax
   12e0d:	83 e0 7f             	and    $0x7f,%eax
   12e10:	88 45 f3             	mov    %al,-0xd(%ebp)
   12e13:	80 7d f3 2a          	cmpb   $0x2a,-0xd(%ebp)
   12e17:	74 06                	je     12e1f <_ZN4re3614KeyboardDriver16process_scancodeEh+0xeb>
   12e19:	80 7d f3 36          	cmpb   $0x36,-0xd(%ebp)
   12e1d:	75 12                	jne    12e31 <_ZN4re3614KeyboardDriver16process_scancodeEh+0xfd>
   12e1f:	0f b6 45 f4          	movzbl -0xc(%ebp),%eax
   12e23:	83 f0 01             	xor    $0x1,%eax
   12e26:	88 83 44 17 00 00    	mov    %al,0x1744(%ebx)
   12e2c:	e9 ac 02 00 00       	jmp    130dd <_ZN4re3614KeyboardDriver16process_scancodeEh+0x3a9>
   12e31:	80 7d f3 1d          	cmpb   $0x1d,-0xd(%ebp)
   12e35:	75 12                	jne    12e49 <_ZN4re3614KeyboardDriver16process_scancodeEh+0x115>
   12e37:	0f b6 45 f4          	movzbl -0xc(%ebp),%eax
   12e3b:	83 f0 01             	xor    $0x1,%eax
   12e3e:	88 83 45 17 00 00    	mov    %al,0x1745(%ebx)
   12e44:	e9 94 02 00 00       	jmp    130dd <_ZN4re3614KeyboardDriver16process_scancodeEh+0x3a9>
   12e49:	80 7d f3 38          	cmpb   $0x38,-0xd(%ebp)
   12e4d:	75 12                	jne    12e61 <_ZN4re3614KeyboardDriver16process_scancodeEh+0x12d>
   12e4f:	0f b6 45 f4          	movzbl -0xc(%ebp),%eax
   12e53:	83 f0 01             	xor    $0x1,%eax
   12e56:	88 83 46 17 00 00    	mov    %al,0x1746(%ebx)
   12e5c:	e9 7c 02 00 00       	jmp    130dd <_ZN4re3614KeyboardDriver16process_scancodeEh+0x3a9>
   12e61:	80 7d f3 3a          	cmpb   $0x3a,-0xd(%ebp)
   12e65:	75 20                	jne    12e87 <_ZN4re3614KeyboardDriver16process_scancodeEh+0x153>
   12e67:	0f b6 45 f4          	movzbl -0xc(%ebp),%eax
   12e6b:	83 f0 01             	xor    $0x1,%eax
   12e6e:	84 c0                	test   %al,%al
   12e70:	74 15                	je     12e87 <_ZN4re3614KeyboardDriver16process_scancodeEh+0x153>
   12e72:	0f b6 83 47 17 00 00 	movzbl 0x1747(%ebx),%eax
   12e79:	83 f0 01             	xor    $0x1,%eax
   12e7c:	88 83 47 17 00 00    	mov    %al,0x1747(%ebx)
   12e82:	e9 56 02 00 00       	jmp    130dd <_ZN4re3614KeyboardDriver16process_scancodeEh+0x3a9>
   12e87:	0f b6 83 46 17 00 00 	movzbl 0x1746(%ebx),%eax
   12e8e:	84 c0                	test   %al,%al
   12e90:	74 66                	je     12ef8 <_ZN4re3614KeyboardDriver16process_scancodeEh+0x1c4>
   12e92:	0f b6 83 44 17 00 00 	movzbl 0x1744(%ebx),%eax
   12e99:	84 c0                	test   %al,%al
   12e9b:	74 5b                	je     12ef8 <_ZN4re3614KeyboardDriver16process_scancodeEh+0x1c4>
   12e9d:	0f b6 45 f4          	movzbl -0xc(%ebp),%eax
   12ea1:	83 f0 01             	xor    $0x1,%eax
   12ea4:	84 c0                	test   %al,%al
   12ea6:	74 50                	je     12ef8 <_ZN4re3614KeyboardDriver16process_scancodeEh+0x1c4>
   12ea8:	8b 83 48 17 00 00    	mov    0x1748(%ebx),%eax
   12eae:	8d 50 01             	lea    0x1(%eax),%edx
   12eb1:	89 d0                	mov    %edx,%eax
   12eb3:	c1 f8 1f             	sar    $0x1f,%eax
   12eb6:	c1 e8 1f             	shr    $0x1f,%eax
   12eb9:	01 c2                	add    %eax,%edx
   12ebb:	83 e2 01             	and    $0x1,%edx
   12ebe:	29 c2                	sub    %eax,%edx
   12ec0:	89 d0                	mov    %edx,%eax
   12ec2:	89 83 48 17 00 00    	mov    %eax,0x1748(%ebx)
   12ec8:	8b 83 48 17 00 00    	mov    0x1748(%ebx),%eax
   12ece:	85 c0                	test   %eax,%eax
   12ed0:	75 08                	jne    12eda <_ZN4re3614KeyboardDriver16process_scancodeEh+0x1a6>
   12ed2:	8d 83 88 95 ff ff    	lea    -0x6a78(%ebx),%eax
   12ed8:	eb 06                	jmp    12ee0 <_ZN4re3614KeyboardDriver16process_scancodeEh+0x1ac>
   12eda:	8d 83 8f 95 ff ff    	lea    -0x6a71(%ebx),%eax
   12ee0:	83 ec 08             	sub    $0x8,%esp
   12ee3:	50                   	push   %eax
   12ee4:	8d 83 96 95 ff ff    	lea    -0x6a6a(%ebx),%eax
   12eea:	50                   	push   %eax
   12eeb:	e8 14 f9 ff ff       	call   12804 <printf>
   12ef0:	83 c4 10             	add    $0x10,%esp
   12ef3:	e9 e5 01 00 00       	jmp    130dd <_ZN4re3614KeyboardDriver16process_scancodeEh+0x3a9>
   12ef8:	80 7d f3 3a          	cmpb   $0x3a,-0xd(%ebp)
   12efc:	76 30                	jbe    12f2e <_ZN4re3614KeyboardDriver16process_scancodeEh+0x1fa>
   12efe:	80 7d f3 44          	cmpb   $0x44,-0xd(%ebp)
   12f02:	77 2a                	ja     12f2e <_ZN4re3614KeyboardDriver16process_scancodeEh+0x1fa>
   12f04:	0f b6 45 f4          	movzbl -0xc(%ebp),%eax
   12f08:	83 f0 01             	xor    $0x1,%eax
   12f0b:	84 c0                	test   %al,%al
   12f0d:	74 1f                	je     12f2e <_ZN4re3614KeyboardDriver16process_scancodeEh+0x1fa>
   12f0f:	0f b6 45 f3          	movzbl -0xd(%ebp),%eax
   12f13:	83 e8 3a             	sub    $0x3a,%eax
   12f16:	83 ec 08             	sub    $0x8,%esp
   12f19:	50                   	push   %eax
   12f1a:	8d 83 b0 95 ff ff    	lea    -0x6a50(%ebx),%eax
   12f20:	50                   	push   %eax
   12f21:	e8 de f8 ff ff       	call   12804 <printf>
   12f26:	83 c4 10             	add    $0x10,%esp
   12f29:	e9 af 01 00 00       	jmp    130dd <_ZN4re3614KeyboardDriver16process_scancodeEh+0x3a9>
   12f2e:	80 7d f4 00          	cmpb   $0x0,-0xc(%ebp)
   12f32:	0f 85 a4 01 00 00    	jne    130dc <_ZN4re3614KeyboardDriver16process_scancodeEh+0x3a8>
   12f38:	0f b6 45 f3          	movzbl -0xd(%ebp),%eax
   12f3c:	84 c0                	test   %al,%al
   12f3e:	0f 88 99 01 00 00    	js     130dd <_ZN4re3614KeyboardDriver16process_scancodeEh+0x3a9>
   12f44:	c6 45 f6 00          	movb   $0x0,-0xa(%ebp)
   12f48:	c6 45 f5 00          	movb   $0x0,-0xb(%ebp)
   12f4c:	8b 83 48 17 00 00    	mov    0x1748(%ebx),%eax
   12f52:	85 c0                	test   %eax,%eax
   12f54:	75 08                	jne    12f5e <_ZN4re3614KeyboardDriver16process_scancodeEh+0x22a>
   12f56:	8d 83 84 93 ff ff    	lea    -0x6c7c(%ebx),%eax
   12f5c:	eb 06                	jmp    12f64 <_ZN4re3614KeyboardDriver16process_scancodeEh+0x230>
   12f5e:	8d 83 84 94 ff ff    	lea    -0x6b7c(%ebx),%eax
   12f64:	89 45 ec             	mov    %eax,-0x14(%ebp)
   12f67:	8b 83 48 17 00 00    	mov    0x1748(%ebx),%eax
   12f6d:	85 c0                	test   %eax,%eax
   12f6f:	75 08                	jne    12f79 <_ZN4re3614KeyboardDriver16process_scancodeEh+0x245>
   12f71:	8d 83 04 94 ff ff    	lea    -0x6bfc(%ebx),%eax
   12f77:	eb 06                	jmp    12f7f <_ZN4re3614KeyboardDriver16process_scancodeEh+0x24b>
   12f79:	8d 83 04 95 ff ff    	lea    -0x6afc(%ebx),%eax
   12f7f:	89 45 e8             	mov    %eax,-0x18(%ebp)
   12f82:	0f b6 55 f3          	movzbl -0xd(%ebp),%edx
   12f86:	8b 45 ec             	mov    -0x14(%ebp),%eax
   12f89:	01 d0                	add    %edx,%eax
   12f8b:	0f b6 00             	movzbl (%eax),%eax
   12f8e:	88 45 e7             	mov    %al,-0x19(%ebp)
   12f91:	80 7d e7 60          	cmpb   $0x60,-0x19(%ebp)
   12f95:	7e 0a                	jle    12fa1 <_ZN4re3614KeyboardDriver16process_scancodeEh+0x26d>
   12f97:	80 7d e7 7a          	cmpb   $0x7a,-0x19(%ebp)
   12f9b:	7f 04                	jg     12fa1 <_ZN4re3614KeyboardDriver16process_scancodeEh+0x26d>
   12f9d:	c6 45 f5 01          	movb   $0x1,-0xb(%ebp)
   12fa1:	0f b6 83 44 17 00 00 	movzbl 0x1744(%ebx),%eax
   12fa8:	84 c0                	test   %al,%al
   12faa:	74 31                	je     12fdd <_ZN4re3614KeyboardDriver16process_scancodeEh+0x2a9>
   12fac:	0f b6 55 f3          	movzbl -0xd(%ebp),%edx
   12fb0:	8b 45 e8             	mov    -0x18(%ebp),%eax
   12fb3:	01 d0                	add    %edx,%eax
   12fb5:	0f b6 00             	movzbl (%eax),%eax
   12fb8:	88 45 f6             	mov    %al,-0xa(%ebp)
   12fbb:	0f b6 83 47 17 00 00 	movzbl 0x1747(%ebx),%eax
   12fc2:	84 c0                	test   %al,%al
   12fc4:	74 46                	je     1300c <_ZN4re3614KeyboardDriver16process_scancodeEh+0x2d8>
   12fc6:	80 7d f5 00          	cmpb   $0x0,-0xb(%ebp)
   12fca:	74 40                	je     1300c <_ZN4re3614KeyboardDriver16process_scancodeEh+0x2d8>
   12fcc:	0f b6 55 f3          	movzbl -0xd(%ebp),%edx
   12fd0:	8b 45 ec             	mov    -0x14(%ebp),%eax
   12fd3:	01 d0                	add    %edx,%eax
   12fd5:	0f b6 00             	movzbl (%eax),%eax
   12fd8:	88 45 f6             	mov    %al,-0xa(%ebp)
   12fdb:	eb 2f                	jmp    1300c <_ZN4re3614KeyboardDriver16process_scancodeEh+0x2d8>
   12fdd:	0f b6 55 f3          	movzbl -0xd(%ebp),%edx
   12fe1:	8b 45 ec             	mov    -0x14(%ebp),%eax
   12fe4:	01 d0                	add    %edx,%eax
   12fe6:	0f b6 00             	movzbl (%eax),%eax
   12fe9:	88 45 f6             	mov    %al,-0xa(%ebp)
   12fec:	0f b6 83 47 17 00 00 	movzbl 0x1747(%ebx),%eax
   12ff3:	84 c0                	test   %al,%al
   12ff5:	74 15                	je     1300c <_ZN4re3614KeyboardDriver16process_scancodeEh+0x2d8>
   12ff7:	80 7d f5 00          	cmpb   $0x0,-0xb(%ebp)
   12ffb:	74 0f                	je     1300c <_ZN4re3614KeyboardDriver16process_scancodeEh+0x2d8>
   12ffd:	0f b6 55 f3          	movzbl -0xd(%ebp),%edx
   13001:	8b 45 e8             	mov    -0x18(%ebp),%eax
   13004:	01 d0                	add    %edx,%eax
   13006:	0f b6 00             	movzbl (%eax),%eax
   13009:	88 45 f6             	mov    %al,-0xa(%ebp)
   1300c:	80 7d f6 00          	cmpb   $0x0,-0xa(%ebp)
   13010:	0f 84 c7 00 00 00    	je     130dd <_ZN4re3614KeyboardDriver16process_scancodeEh+0x3a9>
   13016:	0f b6 83 45 17 00 00 	movzbl 0x1745(%ebx),%eax
   1301d:	84 c0                	test   %al,%al
   1301f:	74 10                	je     13031 <_ZN4re3614KeyboardDriver16process_scancodeEh+0x2fd>
   13021:	80 7d f5 00          	cmpb   $0x0,-0xb(%ebp)
   13025:	74 0a                	je     13031 <_ZN4re3614KeyboardDriver16process_scancodeEh+0x2fd>
   13027:	0f b6 45 f6          	movzbl -0xa(%ebp),%eax
   1302b:	83 e8 60             	sub    $0x60,%eax
   1302e:	88 45 f6             	mov    %al,-0xa(%ebp)
   13031:	8b 83 64 18 00 00    	mov    0x1864(%ebx),%eax
   13037:	8d 50 01             	lea    0x1(%eax),%edx
   1303a:	89 d0                	mov    %edx,%eax
   1303c:	c1 f8 1f             	sar    $0x1f,%eax
   1303f:	c1 e8 18             	shr    $0x18,%eax
   13042:	01 c2                	add    %eax,%edx
   13044:	0f b6 d2             	movzbl %dl,%edx
   13047:	29 c2                	sub    %eax,%edx
   13049:	89 55 e0             	mov    %edx,-0x20(%ebp)
   1304c:	8b 83 68 18 00 00    	mov    0x1868(%ebx),%eax
   13052:	39 45 e0             	cmp    %eax,-0x20(%ebp)
   13055:	74 2e                	je     13085 <_ZN4re3614KeyboardDriver16process_scancodeEh+0x351>
   13057:	8b 83 64 18 00 00    	mov    0x1864(%ebx),%eax
   1305d:	0f b6 55 f6          	movzbl -0xa(%ebp),%edx
   13061:	88 94 03 64 17 00 00 	mov    %dl,0x1764(%ebx,%eax,1)
   13068:	8b 45 e0             	mov    -0x20(%ebp),%eax
   1306b:	89 83 64 18 00 00    	mov    %eax,0x1864(%ebx)
   13071:	8b 83 98 ff ff ff    	mov    -0x68(%ebx),%eax
   13077:	83 ec 08             	sub    $0x8,%esp
   1307a:	6a 01                	push   $0x1
   1307c:	50                   	push   %eax
   1307d:	e8 b6 18 00 00       	call   14938 <_ZN4re3611EventSystem4pushEij>
   13082:	83 c4 10             	add    $0x10,%esp
   13085:	80 7d f6 09          	cmpb   $0x9,-0xa(%ebp)
   13089:	74 52                	je     130dd <_ZN4re3614KeyboardDriver16process_scancodeEh+0x3a9>
   1308b:	80 7d f6 1f          	cmpb   $0x1f,-0xa(%ebp)
   1308f:	7f 0c                	jg     1309d <_ZN4re3614KeyboardDriver16process_scancodeEh+0x369>
   13091:	80 7d f6 0a          	cmpb   $0xa,-0xa(%ebp)
   13095:	74 06                	je     1309d <_ZN4re3614KeyboardDriver16process_scancodeEh+0x369>
   13097:	80 7d f6 08          	cmpb   $0x8,-0xa(%ebp)
   1309b:	75 12                	jne    130af <_ZN4re3614KeyboardDriver16process_scancodeEh+0x37b>
   1309d:	0f be 45 f6          	movsbl -0xa(%ebp),%eax
   130a1:	83 ec 0c             	sub    $0xc,%esp
   130a4:	50                   	push   %eax
   130a5:	e8 a5 ef ff ff       	call   1204f <putchar>
   130aa:	83 c4 10             	add    $0x10,%esp
   130ad:	eb 2e                	jmp    130dd <_ZN4re3614KeyboardDriver16process_scancodeEh+0x3a9>
   130af:	0f b6 83 45 17 00 00 	movzbl 0x1745(%ebx),%eax
   130b6:	84 c0                	test   %al,%al
   130b8:	74 23                	je     130dd <_ZN4re3614KeyboardDriver16process_scancodeEh+0x3a9>
   130ba:	0f be 45 e7          	movsbl -0x19(%ebp),%eax
   130be:	83 e8 20             	sub    $0x20,%eax
   130c1:	83 ec 08             	sub    $0x8,%esp
   130c4:	50                   	push   %eax
   130c5:	8d 83 c4 95 ff ff    	lea    -0x6a3c(%ebx),%eax
   130cb:	50                   	push   %eax
   130cc:	e8 33 f7 ff ff       	call   12804 <printf>
   130d1:	83 c4 10             	add    $0x10,%esp
   130d4:	eb 07                	jmp    130dd <_ZN4re3614KeyboardDriver16process_scancodeEh+0x3a9>
   130d6:	90                   	nop
   130d7:	eb 04                	jmp    130dd <_ZN4re3614KeyboardDriver16process_scancodeEh+0x3a9>
   130d9:	90                   	nop
   130da:	eb 01                	jmp    130dd <_ZN4re3614KeyboardDriver16process_scancodeEh+0x3a9>
   130dc:	90                   	nop
   130dd:	8b 5d fc             	mov    -0x4(%ebp),%ebx
   130e0:	c9                   	leave
   130e1:	c3                   	ret

000130e2 <_ZN4re3614KeyboardDriver20get_char_nonblockingEv>:
   130e2:	55                   	push   %ebp
   130e3:	89 e5                	mov    %esp,%ebp
   130e5:	83 ec 10             	sub    $0x10,%esp
   130e8:	e8 ba df ff ff       	call   110a7 <__x86.get_pc_thunk.ax>
   130ed:	05 0f c0 01 00       	add    $0x1c00f,%eax
   130f2:	8b 88 64 18 00 00    	mov    0x1864(%eax),%ecx
   130f8:	8b 90 68 18 00 00    	mov    0x1868(%eax),%edx
   130fe:	39 d1                	cmp    %edx,%ecx
   13100:	75 07                	jne    13109 <_ZN4re3614KeyboardDriver20get_char_nonblockingEv+0x27>
   13102:	b8 00 00 00 00       	mov    $0x0,%eax
   13107:	eb 35                	jmp    1313e <_ZN4re3614KeyboardDriver20get_char_nonblockingEv+0x5c>
   13109:	8b 90 68 18 00 00    	mov    0x1868(%eax),%edx
   1310f:	0f b6 94 10 64 17 00 	movzbl 0x1764(%eax,%edx,1),%edx
   13116:	00 
   13117:	88 55 ff             	mov    %dl,-0x1(%ebp)
   1311a:	8b 90 68 18 00 00    	mov    0x1868(%eax),%edx
   13120:	8d 4a 01             	lea    0x1(%edx),%ecx
   13123:	89 ca                	mov    %ecx,%edx
   13125:	c1 fa 1f             	sar    $0x1f,%edx
   13128:	c1 ea 18             	shr    $0x18,%edx
   1312b:	01 d1                	add    %edx,%ecx
   1312d:	0f b6 c9             	movzbl %cl,%ecx
   13130:	29 d1                	sub    %edx,%ecx
   13132:	89 ca                	mov    %ecx,%edx
   13134:	89 90 68 18 00 00    	mov    %edx,0x1868(%eax)
   1313a:	0f b6 45 ff          	movzbl -0x1(%ebp),%eax
   1313e:	c9                   	leave
   1313f:	c3                   	ret

00013140 <_ZN4re3614KeyboardDriver8get_charEv>:
   13140:	55                   	push   %ebp
   13141:	89 e5                	mov    %esp,%ebp
   13143:	53                   	push   %ebx
   13144:	83 ec 14             	sub    $0x14,%esp
   13147:	e8 5f df ff ff       	call   110ab <__x86.get_pc_thunk.bx>
   1314c:	81 c3 b0 bf 01 00    	add    $0x1bfb0,%ebx
   13152:	c6 45 f7 00          	movb   $0x0,-0x9(%ebp)
   13156:	eb 12                	jmp    1316a <_ZN4re3614KeyboardDriver8get_charEv+0x2a>
   13158:	8b 83 98 ff ff ff    	mov    -0x68(%ebx),%eax
   1315e:	83 ec 0c             	sub    $0xc,%esp
   13161:	50                   	push   %eax
   13162:	e8 d1 19 00 00       	call   14b38 <_ZN4re3611EventSystem4waitEi>
   13167:	83 c4 10             	add    $0x10,%esp
   1316a:	e8 73 ff ff ff       	call   130e2 <_ZN4re3614KeyboardDriver20get_char_nonblockingEv>
   1316f:	88 45 f7             	mov    %al,-0x9(%ebp)
   13172:	80 7d f7 00          	cmpb   $0x0,-0x9(%ebp)
   13176:	0f 94 c0             	sete   %al
   13179:	84 c0                	test   %al,%al
   1317b:	75 db                	jne    13158 <_ZN4re3614KeyboardDriver8get_charEv+0x18>
   1317d:	0f b6 45 f7          	movzbl -0x9(%ebp),%eax
   13181:	8b 5d fc             	mov    -0x4(%ebp),%ebx
   13184:	c9                   	leave
   13185:	c3                   	ret

00013186 <_ZN4re36L19thread_exit_wrapperEv>:
   13186:	55                   	push   %ebp
   13187:	89 e5                	mov    %esp,%ebp
   13189:	53                   	push   %ebx
   1318a:	83 ec 04             	sub    $0x4,%esp
   1318d:	e8 19 df ff ff       	call   110ab <__x86.get_pc_thunk.bx>
   13192:	81 c3 6a bf 01 00    	add    $0x1bf6a,%ebx
   13198:	8b 83 84 3f 01 00    	mov    0x13f84(%ebx),%eax
   1319e:	83 ec 08             	sub    $0x8,%esp
   131a1:	50                   	push   %eax
   131a2:	8d 83 c8 95 ff ff    	lea    -0x6a38(%ebx),%eax
   131a8:	50                   	push   %eax
   131a9:	e8 56 f6 ff ff       	call   12804 <printf>
   131ae:	83 c4 10             	add    $0x10,%esp
   131b1:	8b 93 84 3f 01 00    	mov    0x13f84(%ebx),%edx
   131b7:	8d 83 90 18 00 00    	lea    0x1890(%ebx),%eax
   131bd:	69 d2 38 09 00 00    	imul   $0x938,%edx,%edx
   131c3:	01 d0                	add    %edx,%eax
   131c5:	83 c0 60             	add    $0x60,%eax
   131c8:	c6 00 05             	movb   $0x5,(%eax)
   131cb:	e8 e7 06 00 00       	call   138b7 <_ZN4re3612thread_yieldEv>
   131d0:	f4                   	hlt
   131d1:	eb fd                	jmp    131d0 <_ZN4re36L19thread_exit_wrapperEv+0x4a>

000131d3 <_ZN4re3611thread_initEv>:
   131d3:	55                   	push   %ebp
   131d4:	89 e5                	mov    %esp,%ebp
   131d6:	53                   	push   %ebx
   131d7:	83 ec 10             	sub    $0x10,%esp
   131da:	e8 c8 de ff ff       	call   110a7 <__x86.get_pc_thunk.ax>
   131df:	05 1d bf 01 00       	add    $0x1bf1d,%eax
   131e4:	c7 45 f8 00 00 00 00 	movl   $0x0,-0x8(%ebp)
   131eb:	e9 b2 01 00 00       	jmp    133a2 <_ZN4re3611thread_initEv+0x1cf>
   131f0:	8b 55 f8             	mov    -0x8(%ebp),%edx
   131f3:	8b 5d f8             	mov    -0x8(%ebp),%ebx
   131f6:	8d 88 84 18 00 00    	lea    0x1884(%eax),%ecx
   131fc:	69 db 38 09 00 00    	imul   $0x938,%ebx,%ebx
   13202:	01 d9                	add    %ebx,%ecx
   13204:	89 11                	mov    %edx,(%ecx)
   13206:	8b 4d f8             	mov    -0x8(%ebp),%ecx
   13209:	8d 90 90 18 00 00    	lea    0x1890(%eax),%edx
   1320f:	69 c9 38 09 00 00    	imul   $0x938,%ecx,%ecx
   13215:	01 ca                	add    %ecx,%edx
   13217:	83 c2 60             	add    $0x60,%edx
   1321a:	c6 02 00             	movb   $0x0,(%edx)
   1321d:	8b 4d f8             	mov    -0x8(%ebp),%ecx
   13220:	8d 90 91 18 00 00    	lea    0x1891(%eax),%edx
   13226:	69 c9 38 09 00 00    	imul   $0x938,%ecx,%ecx
   1322c:	01 ca                	add    %ecx,%edx
   1322e:	83 c2 60             	add    $0x60,%edx
   13231:	c6 02 ff             	movb   $0xff,(%edx)
   13234:	8b 4d f8             	mov    -0x8(%ebp),%ecx
   13237:	8d 90 84 18 00 00    	lea    0x1884(%eax),%edx
   1323d:	69 c9 38 09 00 00    	imul   $0x938,%ecx,%ecx
   13243:	01 ca                	add    %ecx,%edx
   13245:	83 c2 70             	add    $0x70,%edx
   13248:	c7 02 00 00 00 00    	movl   $0x0,(%edx)
   1324e:	8b 55 f8             	mov    -0x8(%ebp),%edx
   13251:	89 d1                	mov    %edx,%ecx
   13253:	c1 e1 0c             	shl    $0xc,%ecx
   13256:	8d 90 94 3f 01 00    	lea    0x13f94(%eax),%edx
   1325c:	01 d1                	add    %edx,%ecx
   1325e:	8b 5d f8             	mov    -0x8(%ebp),%ebx
   13261:	8d 90 88 18 00 00    	lea    0x1888(%eax),%edx
   13267:	69 db 38 09 00 00    	imul   $0x938,%ebx,%ebx
   1326d:	01 da                	add    %ebx,%edx
   1326f:	83 c2 70             	add    $0x70,%edx
   13272:	89 0a                	mov    %ecx,(%edx)
   13274:	8b 4d f8             	mov    -0x8(%ebp),%ecx
   13277:	8d 90 8c 18 00 00    	lea    0x188c(%eax),%edx
   1327d:	69 c9 38 09 00 00    	imul   $0x938,%ecx,%ecx
   13283:	01 ca                	add    %ecx,%edx
   13285:	83 c2 70             	add    $0x70,%edx
   13288:	c7 02 00 00 00 00    	movl   $0x0,(%edx)
   1328e:	8b 4d f8             	mov    -0x8(%ebp),%ecx
   13291:	8d 90 90 18 00 00    	lea    0x1890(%eax),%edx
   13297:	69 c9 38 09 00 00    	imul   $0x938,%ecx,%ecx
   1329d:	01 ca                	add    %ecx,%edx
   1329f:	83 c2 70             	add    $0x70,%edx
   132a2:	c7 02 ff ff ff ff    	movl   $0xffffffff,(%edx)
   132a8:	8b 4d f8             	mov    -0x8(%ebp),%ecx
   132ab:	8d 90 84 18 00 00    	lea    0x1884(%eax),%edx
   132b1:	69 c9 38 09 00 00    	imul   $0x938,%ecx,%ecx
   132b7:	01 ca                	add    %ecx,%edx
   132b9:	83 ea 80             	sub    $0xffffff80,%edx
   132bc:	c7 02 05 00 00 00    	movl   $0x5,(%edx)
   132c2:	8b 4d f8             	mov    -0x8(%ebp),%ecx
   132c5:	8d 90 88 18 00 00    	lea    0x1888(%eax),%edx
   132cb:	69 c9 38 09 00 00    	imul   $0x938,%ecx,%ecx
   132d1:	01 ca                	add    %ecx,%edx
   132d3:	83 ea 80             	sub    $0xffffff80,%edx
   132d6:	c7 02 00 00 00 00    	movl   $0x0,(%edx)
   132dc:	8b 4d f8             	mov    -0x8(%ebp),%ecx
   132df:	8d 90 88 18 00 00    	lea    0x1888(%eax),%edx
   132e5:	69 c9 38 09 00 00    	imul   $0x938,%ecx,%ecx
   132eb:	01 ca                	add    %ecx,%edx
   132ed:	c6 02 00             	movb   $0x0,(%edx)
   132f0:	8b 4d f8             	mov    -0x8(%ebp),%ecx
   132f3:	8d 90 88 18 00 00    	lea    0x1888(%eax),%edx
   132f9:	69 c9 38 09 00 00    	imul   $0x938,%ecx,%ecx
   132ff:	01 ca                	add    %ecx,%edx
   13301:	c6 02 00             	movb   $0x0,(%edx)
   13304:	8b 4d f8             	mov    -0x8(%ebp),%ecx
   13307:	8d 90 8c 18 00 00    	lea    0x188c(%eax),%edx
   1330d:	69 c9 38 09 00 00    	imul   $0x938,%ecx,%ecx
   13313:	01 ca                	add    %ecx,%edx
   13315:	83 ea 80             	sub    $0xffffff80,%edx
   13318:	c7 02 00 00 00 00    	movl   $0x0,(%edx)
   1331e:	8b 4d f8             	mov    -0x8(%ebp),%ecx
   13321:	8d 90 8c 18 00 00    	lea    0x188c(%eax),%edx
   13327:	69 c9 38 09 00 00    	imul   $0x938,%ecx,%ecx
   1332d:	01 ca                	add    %ecx,%edx
   1332f:	81 c2 90 00 00 00    	add    $0x90,%edx
   13335:	c7 02 00 00 00 00    	movl   $0x0,(%edx)
   1333b:	c7 45 f4 00 00 00 00 	movl   $0x0,-0xc(%ebp)
   13342:	eb 23                	jmp    13367 <_ZN4re3611thread_initEv+0x194>
   13344:	8b 55 f8             	mov    -0x8(%ebp),%edx
   13347:	69 ca 4e 02 00 00    	imul   $0x24e,%edx,%ecx
   1334d:	8b 55 f4             	mov    -0xc(%ebp),%edx
   13350:	01 ca                	add    %ecx,%edx
   13352:	81 c2 34 02 00 00    	add    $0x234,%edx
   13358:	c7 84 90 88 18 00 00 	movl   $0x0,0x1888(%eax,%edx,4)
   1335f:	00 00 00 00 
   13363:	83 45 f4 01          	addl   $0x1,-0xc(%ebp)
   13367:	83 7d f4 0f          	cmpl   $0xf,-0xc(%ebp)
   1336b:	7e d7                	jle    13344 <_ZN4re3611thread_initEv+0x171>
   1336d:	8b 4d f8             	mov    -0x8(%ebp),%ecx
   13370:	8d 90 88 18 00 00    	lea    0x1888(%eax),%edx
   13376:	69 c9 38 09 00 00    	imul   $0x938,%ecx,%ecx
   1337c:	01 ca                	add    %ecx,%edx
   1337e:	83 c2 20             	add    $0x20,%edx
   13381:	c6 02 00             	movb   $0x0,(%edx)
   13384:	8b 4d f8             	mov    -0x8(%ebp),%ecx
   13387:	8d 90 8c 18 00 00    	lea    0x188c(%eax),%edx
   1338d:	69 c9 38 09 00 00    	imul   $0x938,%ecx,%ecx
   13393:	01 ca                	add    %ecx,%edx
   13395:	83 c2 20             	add    $0x20,%edx
   13398:	c7 02 00 00 00 00    	movl   $0x0,(%edx)
   1339e:	83 45 f8 01          	addl   $0x1,-0x8(%ebp)
   133a2:	83 7d f8 1f          	cmpl   $0x1f,-0x8(%ebp)
   133a6:	0f 8e 44 fe ff ff    	jle    131f0 <_ZN4re3611thread_initEv+0x1d>
   133ac:	c6 80 f0 18 00 00 02 	movb   $0x2,0x18f0(%eax)
   133b3:	c6 80 f1 18 00 00 80 	movb   $0x80,0x18f1(%eax)
   133ba:	c6 80 88 18 00 00 62 	movb   $0x62,0x1888(%eax)
   133c1:	c6 80 89 18 00 00 6f 	movb   $0x6f,0x1889(%eax)
   133c8:	c6 80 8a 18 00 00 6f 	movb   $0x6f,0x188a(%eax)
   133cf:	c6 80 8b 18 00 00 74 	movb   $0x74,0x188b(%eax)
   133d6:	c6 80 8c 18 00 00 00 	movb   $0x0,0x188c(%eax)
   133dd:	c7 c2 a4 5a 06 00    	mov    $0x65aa4,%edx
   133e3:	8b 12                	mov    (%edx),%edx
   133e5:	89 90 0c 19 00 00    	mov    %edx,0x190c(%eax)
   133eb:	c7 80 48 21 00 00 00 	movl   $0x0,0x2148(%eax)
   133f2:	00 00 00 
   133f5:	c7 80 40 21 00 00 00 	movl   $0x0,0x2140(%eax)
   133fc:	00 00 00 
   133ff:	c7 80 44 21 00 00 00 	movl   $0x0,0x2144(%eax)
   13406:	00 00 00 
   13409:	c6 80 4c 21 00 00 00 	movb   $0x0,0x214c(%eax)
   13410:	c6 80 a8 18 00 00 01 	movb   $0x1,0x18a8(%eax)
   13417:	c7 80 ac 18 00 00 00 	movl   $0x0,0x18ac(%eax)
   1341e:	00 00 00 
   13421:	c7 80 84 3f 01 00 00 	movl   $0x0,0x13f84(%eax)
   13428:	00 00 00 
   1342b:	c7 80 88 3f 01 00 01 	movl   $0x1,0x13f88(%eax)
   13432:	00 00 00 
   13435:	90                   	nop
   13436:	8b 5d fc             	mov    -0x4(%ebp),%ebx
   13439:	c9                   	leave
   1343a:	c3                   	ret

0001343b <_ZN4re3613thread_createEPKcPFvvEh>:
   1343b:	55                   	push   %ebp
   1343c:	89 e5                	mov    %esp,%ebp
   1343e:	53                   	push   %ebx
   1343f:	83 ec 34             	sub    $0x34,%esp
   13442:	e8 64 dc ff ff       	call   110ab <__x86.get_pc_thunk.bx>
   13447:	81 c3 b5 bc 01 00    	add    $0x1bcb5,%ebx
   1344d:	8b 45 10             	mov    0x10(%ebp),%eax
   13450:	88 45 d4             	mov    %al,-0x2c(%ebp)
   13453:	83 ec 0c             	sub    $0xc,%esp
   13456:	8d 45 dc             	lea    -0x24(%ebp),%eax
   13459:	50                   	push   %eax
   1345a:	e8 a7 04 00 00       	call   13906 <_ZN4re3614InterruptGuardC1Ev>
   1345f:	83 c4 10             	add    $0x10,%esp
   13462:	c7 45 f4 ff ff ff ff 	movl   $0xffffffff,-0xc(%ebp)
   13469:	c7 45 f0 01 00 00 00 	movl   $0x1,-0x10(%ebp)
   13470:	eb 27                	jmp    13499 <_ZN4re3613thread_createEPKcPFvvEh+0x5e>
   13472:	8b 55 f0             	mov    -0x10(%ebp),%edx
   13475:	8d 83 90 18 00 00    	lea    0x1890(%ebx),%eax
   1347b:	69 d2 38 09 00 00    	imul   $0x938,%edx,%edx
   13481:	01 d0                	add    %edx,%eax
   13483:	83 c0 60             	add    $0x60,%eax
   13486:	0f b6 00             	movzbl (%eax),%eax
   13489:	84 c0                	test   %al,%al
   1348b:	75 08                	jne    13495 <_ZN4re3613thread_createEPKcPFvvEh+0x5a>
   1348d:	8b 45 f0             	mov    -0x10(%ebp),%eax
   13490:	89 45 f4             	mov    %eax,-0xc(%ebp)
   13493:	eb 0a                	jmp    1349f <_ZN4re3613thread_createEPKcPFvvEh+0x64>
   13495:	83 45 f0 01          	addl   $0x1,-0x10(%ebp)
   13499:	83 7d f0 1f          	cmpl   $0x1f,-0x10(%ebp)
   1349d:	7e d3                	jle    13472 <_ZN4re3613thread_createEPKcPFvvEh+0x37>
   1349f:	83 7d f4 ff          	cmpl   $0xffffffff,-0xc(%ebp)
   134a3:	75 0a                	jne    134af <_ZN4re3613thread_createEPKcPFvvEh+0x74>
   134a5:	bb ff ff ff ff       	mov    $0xffffffff,%ebx
   134aa:	e9 c3 01 00 00       	jmp    13672 <_ZN4re3613thread_createEPKcPFvvEh+0x237>
   134af:	8b 45 f4             	mov    -0xc(%ebp),%eax
   134b2:	69 d0 38 09 00 00    	imul   $0x938,%eax,%edx
   134b8:	8d 83 84 18 00 00    	lea    0x1884(%ebx),%eax
   134be:	01 d0                	add    %edx,%eax
   134c0:	89 45 e4             	mov    %eax,-0x1c(%ebp)
   134c3:	c7 45 ec 00 00 00 00 	movl   $0x0,-0x14(%ebp)
   134ca:	eb 1c                	jmp    134e8 <_ZN4re3613thread_createEPKcPFvvEh+0xad>
   134cc:	8b 55 ec             	mov    -0x14(%ebp),%edx
   134cf:	8b 45 08             	mov    0x8(%ebp),%eax
   134d2:	01 d0                	add    %edx,%eax
   134d4:	0f b6 00             	movzbl (%eax),%eax
   134d7:	8b 4d e4             	mov    -0x1c(%ebp),%ecx
   134da:	8b 55 ec             	mov    -0x14(%ebp),%edx
   134dd:	01 ca                	add    %ecx,%edx
   134df:	83 c2 04             	add    $0x4,%edx
   134e2:	88 02                	mov    %al,(%edx)
   134e4:	83 45 ec 01          	addl   $0x1,-0x14(%ebp)
   134e8:	8b 55 ec             	mov    -0x14(%ebp),%edx
   134eb:	8b 45 08             	mov    0x8(%ebp),%eax
   134ee:	01 d0                	add    %edx,%eax
   134f0:	0f b6 00             	movzbl (%eax),%eax
   134f3:	84 c0                	test   %al,%al
   134f5:	74 06                	je     134fd <_ZN4re3613thread_createEPKcPFvvEh+0xc2>
   134f7:	83 7d ec 1e          	cmpl   $0x1e,-0x14(%ebp)
   134fb:	7e cf                	jle    134cc <_ZN4re3613thread_createEPKcPFvvEh+0x91>
   134fd:	8b 55 e4             	mov    -0x1c(%ebp),%edx
   13500:	8b 45 ec             	mov    -0x14(%ebp),%eax
   13503:	01 d0                	add    %edx,%eax
   13505:	83 c0 04             	add    $0x4,%eax
   13508:	c6 00 00             	movb   $0x0,(%eax)
   1350b:	8b 45 e4             	mov    -0x1c(%ebp),%eax
   1350e:	c6 40 6c 01          	movb   $0x1,0x6c(%eax)
   13512:	8b 45 e4             	mov    -0x1c(%ebp),%eax
   13515:	0f b6 55 d4          	movzbl -0x2c(%ebp),%edx
   13519:	88 50 6d             	mov    %dl,0x6d(%eax)
   1351c:	8b 45 e4             	mov    -0x1c(%ebp),%eax
   1351f:	c7 40 78 00 00 00 00 	movl   $0x0,0x78(%eax)
   13526:	8b 45 e4             	mov    -0x1c(%ebp),%eax
   13529:	c7 40 7c ff ff ff ff 	movl   $0xffffffff,0x7c(%eax)
   13530:	8b 45 e4             	mov    -0x1c(%ebp),%eax
   13533:	c7 80 80 00 00 00 05 	movl   $0x5,0x80(%eax)
   1353a:	00 00 00 
   1353d:	8b 45 e4             	mov    -0x1c(%ebp),%eax
   13540:	c7 80 84 00 00 00 00 	movl   $0x0,0x84(%eax)
   13547:	00 00 00 
   1354a:	c7 c0 a4 5a 06 00    	mov    $0x65aa4,%eax
   13550:	8b 00                	mov    (%eax),%eax
   13552:	89 c2                	mov    %eax,%edx
   13554:	8b 45 e4             	mov    -0x1c(%ebp),%eax
   13557:	89 90 88 00 00 00    	mov    %edx,0x88(%eax)
   1355d:	8b 45 e4             	mov    -0x1c(%ebp),%eax
   13560:	c7 80 bc 08 00 00 00 	movl   $0x0,0x8bc(%eax)
   13567:	00 00 00 
   1356a:	8b 45 e4             	mov    -0x1c(%ebp),%eax
   1356d:	c7 80 c0 08 00 00 00 	movl   $0x0,0x8c0(%eax)
   13574:	00 00 00 
   13577:	8b 45 e4             	mov    -0x1c(%ebp),%eax
   1357a:	c7 80 c4 08 00 00 00 	movl   $0x0,0x8c4(%eax)
   13581:	00 00 00 
   13584:	8b 45 e4             	mov    -0x1c(%ebp),%eax
   13587:	c6 80 c8 08 00 00 00 	movb   $0x0,0x8c8(%eax)
   1358e:	8b 45 e4             	mov    -0x1c(%ebp),%eax
   13591:	c7 80 98 00 00 00 00 	movl   $0x0,0x98(%eax)
   13598:	00 00 00 
   1359b:	8b 45 e4             	mov    -0x1c(%ebp),%eax
   1359e:	c7 80 cc 08 00 00 ff 	movl   $0xffffffff,0x8cc(%eax)
   135a5:	ff ff ff 
   135a8:	8b 45 e4             	mov    -0x1c(%ebp),%eax
   135ab:	c7 80 d0 08 00 00 00 	movl   $0x0,0x8d0(%eax)
   135b2:	00 00 00 
   135b5:	8b 45 e4             	mov    -0x1c(%ebp),%eax
   135b8:	c6 40 24 00          	movb   $0x0,0x24(%eax)
   135bc:	8b 45 e4             	mov    -0x1c(%ebp),%eax
   135bf:	c7 40 28 00 00 00 00 	movl   $0x0,0x28(%eax)
   135c6:	c7 45 e8 00 00 00 00 	movl   $0x0,-0x18(%ebp)
   135cd:	eb 18                	jmp    135e7 <_ZN4re3613thread_createEPKcPFvvEh+0x1ac>
   135cf:	8b 45 e4             	mov    -0x1c(%ebp),%eax
   135d2:	8b 55 e8             	mov    -0x18(%ebp),%edx
   135d5:	81 c2 34 02 00 00    	add    $0x234,%edx
   135db:	c7 44 90 04 00 00 00 	movl   $0x0,0x4(%eax,%edx,4)
   135e2:	00 
   135e3:	83 45 e8 01          	addl   $0x1,-0x18(%ebp)
   135e7:	83 7d e8 0f          	cmpl   $0xf,-0x18(%ebp)
   135eb:	7e e2                	jle    135cf <_ZN4re3613thread_createEPKcPFvvEh+0x194>
   135ed:	8b 45 e4             	mov    -0x1c(%ebp),%eax
   135f0:	8b 40 74             	mov    0x74(%eax),%eax
   135f3:	05 00 10 00 00       	add    $0x1000,%eax
   135f8:	89 45 e0             	mov    %eax,-0x20(%ebp)
   135fb:	83 6d e0 04          	subl   $0x4,-0x20(%ebp)
   135ff:	8d 93 8a 40 fe ff    	lea    -0x1bf76(%ebx),%edx
   13605:	8b 45 e0             	mov    -0x20(%ebp),%eax
   13608:	89 10                	mov    %edx,(%eax)
   1360a:	8b 55 0c             	mov    0xc(%ebp),%edx
   1360d:	83 6d e0 04          	subl   $0x4,-0x20(%ebp)
   13611:	8b 45 e0             	mov    -0x20(%ebp),%eax
   13614:	89 10                	mov    %edx,(%eax)
   13616:	83 6d e0 04          	subl   $0x4,-0x20(%ebp)
   1361a:	8b 45 e0             	mov    -0x20(%ebp),%eax
   1361d:	c7 00 02 02 00 00    	movl   $0x202,(%eax)
   13623:	83 6d e0 04          	subl   $0x4,-0x20(%ebp)
   13627:	8b 45 e0             	mov    -0x20(%ebp),%eax
   1362a:	c7 00 00 00 00 00    	movl   $0x0,(%eax)
   13630:	83 6d e0 04          	subl   $0x4,-0x20(%ebp)
   13634:	8b 45 e0             	mov    -0x20(%ebp),%eax
   13637:	c7 00 00 00 00 00    	movl   $0x0,(%eax)
   1363d:	83 6d e0 04          	subl   $0x4,-0x20(%ebp)
   13641:	8b 45 e0             	mov    -0x20(%ebp),%eax
   13644:	c7 00 00 00 00 00    	movl   $0x0,(%eax)
   1364a:	83 6d e0 04          	subl   $0x4,-0x20(%ebp)
   1364e:	8b 45 e0             	mov    -0x20(%ebp),%eax
   13651:	c7 00 00 00 00 00    	movl   $0x0,(%eax)
   13657:	8b 55 e0             	mov    -0x20(%ebp),%edx
   1365a:	8b 45 e4             	mov    -0x1c(%ebp),%eax
   1365d:	89 50 70             	mov    %edx,0x70(%eax)
   13660:	8b 83 88 3f 01 00    	mov    0x13f88(%ebx),%eax
   13666:	83 c0 01             	add    $0x1,%eax
   13669:	89 83 88 3f 01 00    	mov    %eax,0x13f88(%ebx)
   1366f:	8b 5d f4             	mov    -0xc(%ebp),%ebx
   13672:	83 ec 0c             	sub    $0xc,%esp
   13675:	8d 45 dc             	lea    -0x24(%ebp),%eax
   13678:	50                   	push   %eax
   13679:	e8 a6 02 00 00       	call   13924 <_ZN4re3614InterruptGuardD1Ev>
   1367e:	83 c4 10             	add    $0x10,%esp
   13681:	89 d8                	mov    %ebx,%eax
   13683:	8b 5d fc             	mov    -0x4(%ebp),%ebx
   13686:	c9                   	leave
   13687:	c3                   	ret

00013688 <_ZN4re3614thread_cleanupEi>:
   13688:	55                   	push   %ebp
   13689:	89 e5                	mov    %esp,%ebp
   1368b:	53                   	push   %ebx
   1368c:	83 ec 14             	sub    $0x14,%esp
   1368f:	e8 17 da ff ff       	call   110ab <__x86.get_pc_thunk.bx>
   13694:	81 c3 68 ba 01 00    	add    $0x1ba68,%ebx
   1369a:	83 7d 08 00          	cmpl   $0x0,0x8(%ebp)
   1369e:	0f 88 9f 01 00 00    	js     13843 <_ZN4re3614thread_cleanupEi+0x1bb>
   136a4:	83 7d 08 1f          	cmpl   $0x1f,0x8(%ebp)
   136a8:	0f 8f 95 01 00 00    	jg     13843 <_ZN4re3614thread_cleanupEi+0x1bb>
   136ae:	83 ec 0c             	sub    $0xc,%esp
   136b1:	8d 45 e8             	lea    -0x18(%ebp),%eax
   136b4:	50                   	push   %eax
   136b5:	e8 4c 02 00 00       	call   13906 <_ZN4re3614InterruptGuardC1Ev>
   136ba:	83 c4 10             	add    $0x10,%esp
   136bd:	8b 55 08             	mov    0x8(%ebp),%edx
   136c0:	8d 83 8c 18 00 00    	lea    0x188c(%ebx),%eax
   136c6:	69 d2 38 09 00 00    	imul   $0x938,%edx,%edx
   136cc:	01 d0                	add    %edx,%eax
   136ce:	83 e8 80             	sub    $0xffffff80,%eax
   136d1:	8b 10                	mov    (%eax),%edx
   136d3:	c7 c0 a4 5a 06 00    	mov    $0x65aa4,%eax
   136d9:	8b 00                	mov    (%eax),%eax
   136db:	39 c2                	cmp    %eax,%edx
   136dd:	74 5c                	je     1373b <_ZN4re3614thread_cleanupEi+0xb3>
   136df:	8b 55 08             	mov    0x8(%ebp),%edx
   136e2:	8d 83 8c 18 00 00    	lea    0x188c(%ebx),%eax
   136e8:	69 d2 38 09 00 00    	imul   $0x938,%edx,%edx
   136ee:	01 d0                	add    %edx,%eax
   136f0:	83 e8 80             	sub    $0xffffff80,%eax
   136f3:	8b 00                	mov    (%eax),%eax
   136f5:	85 c0                	test   %eax,%eax
   136f7:	74 42                	je     1373b <_ZN4re3614thread_cleanupEi+0xb3>
   136f9:	8b 55 08             	mov    0x8(%ebp),%edx
   136fc:	8d 83 8c 18 00 00    	lea    0x188c(%ebx),%eax
   13702:	69 d2 38 09 00 00    	imul   $0x938,%edx,%edx
   13708:	01 d0                	add    %edx,%eax
   1370a:	83 e8 80             	sub    $0xffffff80,%eax
   1370d:	8b 00                	mov    (%eax),%eax
   1370f:	83 ec 0c             	sub    $0xc,%esp
   13712:	50                   	push   %eax
   13713:	e8 14 1b 00 00       	call   1522c <_ZN4re363VMM21destroy_address_spaceEPj>
   13718:	83 c4 10             	add    $0x10,%esp
   1371b:	c7 c0 a4 5a 06 00    	mov    $0x65aa4,%eax
   13721:	8b 00                	mov    (%eax),%eax
   13723:	89 c1                	mov    %eax,%ecx
   13725:	8b 55 08             	mov    0x8(%ebp),%edx
   13728:	8d 83 8c 18 00 00    	lea    0x188c(%ebx),%eax
   1372e:	69 d2 38 09 00 00    	imul   $0x938,%edx,%edx
   13734:	01 d0                	add    %edx,%eax
   13736:	83 e8 80             	sub    $0xffffff80,%eax
   13739:	89 08                	mov    %ecx,(%eax)
   1373b:	8b 55 08             	mov    0x8(%ebp),%edx
   1373e:	8d 83 8c 18 00 00    	lea    0x188c(%ebx),%eax
   13744:	69 d2 38 09 00 00    	imul   $0x938,%edx,%edx
   1374a:	01 d0                	add    %edx,%eax
   1374c:	05 90 00 00 00       	add    $0x90,%eax
   13751:	8b 00                	mov    (%eax),%eax
   13753:	89 45 f4             	mov    %eax,-0xc(%ebp)
   13756:	eb 1d                	jmp    13775 <_ZN4re3614thread_cleanupEi+0xed>
   13758:	8b 45 f4             	mov    -0xc(%ebp),%eax
   1375b:	8b 40 1c             	mov    0x1c(%eax),%eax
   1375e:	89 45 ec             	mov    %eax,-0x14(%ebp)
   13761:	83 ec 0c             	sub    $0xc,%esp
   13764:	ff 75 f4             	push   -0xc(%ebp)
   13767:	e8 95 e2 ff ff       	call   11a01 <_ZN4re365kfreeEPv>
   1376c:	83 c4 10             	add    $0x10,%esp
   1376f:	8b 45 ec             	mov    -0x14(%ebp),%eax
   13772:	89 45 f4             	mov    %eax,-0xc(%ebp)
   13775:	83 7d f4 00          	cmpl   $0x0,-0xc(%ebp)
   13779:	75 dd                	jne    13758 <_ZN4re3614thread_cleanupEi+0xd0>
   1377b:	8b 55 08             	mov    0x8(%ebp),%edx
   1377e:	8d 83 8c 18 00 00    	lea    0x188c(%ebx),%eax
   13784:	69 d2 38 09 00 00    	imul   $0x938,%edx,%edx
   1378a:	01 d0                	add    %edx,%eax
   1378c:	05 90 00 00 00       	add    $0x90,%eax
   13791:	c7 00 00 00 00 00    	movl   $0x0,(%eax)
   13797:	c7 45 f0 00 00 00 00 	movl   $0x0,-0x10(%ebp)
   1379e:	eb 66                	jmp    13806 <_ZN4re3614thread_cleanupEi+0x17e>
   137a0:	8b 45 08             	mov    0x8(%ebp),%eax
   137a3:	69 d0 4e 02 00 00    	imul   $0x24e,%eax,%edx
   137a9:	8b 45 f0             	mov    -0x10(%ebp),%eax
   137ac:	01 d0                	add    %edx,%eax
   137ae:	05 34 02 00 00       	add    $0x234,%eax
   137b3:	8b 84 83 88 18 00 00 	mov    0x1888(%ebx,%eax,4),%eax
   137ba:	85 c0                	test   %eax,%eax
   137bc:	74 44                	je     13802 <_ZN4re3614thread_cleanupEi+0x17a>
   137be:	8b 45 08             	mov    0x8(%ebp),%eax
   137c1:	69 d0 4e 02 00 00    	imul   $0x24e,%eax,%edx
   137c7:	8b 45 f0             	mov    -0x10(%ebp),%eax
   137ca:	01 d0                	add    %edx,%eax
   137cc:	05 34 02 00 00       	add    $0x234,%eax
   137d1:	8b 84 83 88 18 00 00 	mov    0x1888(%ebx,%eax,4),%eax
   137d8:	83 ec 0c             	sub    $0xc,%esp
   137db:	50                   	push   %eax
   137dc:	e8 81 5b 00 00       	call   19362 <_ZN4re3612file_releaseEPNS_4fileE>
   137e1:	83 c4 10             	add    $0x10,%esp
   137e4:	8b 45 08             	mov    0x8(%ebp),%eax
   137e7:	69 d0 4e 02 00 00    	imul   $0x24e,%eax,%edx
   137ed:	8b 45 f0             	mov    -0x10(%ebp),%eax
   137f0:	01 d0                	add    %edx,%eax
   137f2:	05 34 02 00 00       	add    $0x234,%eax
   137f7:	c7 84 83 88 18 00 00 	movl   $0x0,0x1888(%ebx,%eax,4)
   137fe:	00 00 00 00 
   13802:	83 45 f0 01          	addl   $0x1,-0x10(%ebp)
   13806:	83 7d f0 0f          	cmpl   $0xf,-0x10(%ebp)
   1380a:	7e 94                	jle    137a0 <_ZN4re3614thread_cleanupEi+0x118>
   1380c:	8b 55 08             	mov    0x8(%ebp),%edx
   1380f:	8d 83 90 18 00 00    	lea    0x1890(%ebx),%eax
   13815:	69 d2 38 09 00 00    	imul   $0x938,%edx,%edx
   1381b:	01 d0                	add    %edx,%eax
   1381d:	83 c0 60             	add    $0x60,%eax
   13820:	c6 00 00             	movb   $0x0,(%eax)
   13823:	8b 83 88 3f 01 00    	mov    0x13f88(%ebx),%eax
   13829:	83 e8 01             	sub    $0x1,%eax
   1382c:	89 83 88 3f 01 00    	mov    %eax,0x13f88(%ebx)
   13832:	83 ec 0c             	sub    $0xc,%esp
   13835:	8d 45 e8             	lea    -0x18(%ebp),%eax
   13838:	50                   	push   %eax
   13839:	e8 e6 00 00 00       	call   13924 <_ZN4re3614InterruptGuardD1Ev>
   1383e:	83 c4 10             	add    $0x10,%esp
   13841:	eb 01                	jmp    13844 <_ZN4re3614thread_cleanupEi+0x1bc>
   13843:	90                   	nop
   13844:	8b 5d fc             	mov    -0x4(%ebp),%ebx
   13847:	c9                   	leave
   13848:	c3                   	ret

00013849 <_ZN4re3616thread_terminateEi>:
   13849:	55                   	push   %ebp
   1384a:	89 e5                	mov    %esp,%ebp
   1384c:	53                   	push   %ebx
   1384d:	83 ec 14             	sub    $0x14,%esp
   13850:	e8 56 d8 ff ff       	call   110ab <__x86.get_pc_thunk.bx>
   13855:	81 c3 a7 b8 01 00    	add    $0x1b8a7,%ebx
   1385b:	83 7d 08 00          	cmpl   $0x0,0x8(%ebp)
   1385f:	78 50                	js     138b1 <_ZN4re3616thread_terminateEi+0x68>
   13861:	83 7d 08 1f          	cmpl   $0x1f,0x8(%ebp)
   13865:	7f 4a                	jg     138b1 <_ZN4re3616thread_terminateEi+0x68>
   13867:	83 ec 0c             	sub    $0xc,%esp
   1386a:	8d 45 f4             	lea    -0xc(%ebp),%eax
   1386d:	50                   	push   %eax
   1386e:	e8 93 00 00 00       	call   13906 <_ZN4re3614InterruptGuardC1Ev>
   13873:	83 c4 10             	add    $0x10,%esp
   13876:	8b 55 08             	mov    0x8(%ebp),%edx
   13879:	8d 83 90 18 00 00    	lea    0x1890(%ebx),%eax
   1387f:	69 d2 38 09 00 00    	imul   $0x938,%edx,%edx
   13885:	01 d0                	add    %edx,%eax
   13887:	83 c0 60             	add    $0x60,%eax
   1388a:	c6 00 05             	movb   $0x5,(%eax)
   1388d:	8b 83 84 3f 01 00    	mov    0x13f84(%ebx),%eax
   13893:	39 45 08             	cmp    %eax,0x8(%ebp)
   13896:	75 08                	jne    138a0 <_ZN4re3616thread_terminateEi+0x57>
   13898:	e8 1a 00 00 00       	call   138b7 <_ZN4re3612thread_yieldEv>
   1389d:	f4                   	hlt
   1389e:	eb fd                	jmp    1389d <_ZN4re3616thread_terminateEi+0x54>
   138a0:	83 ec 0c             	sub    $0xc,%esp
   138a3:	8d 45 f4             	lea    -0xc(%ebp),%eax
   138a6:	50                   	push   %eax
   138a7:	e8 78 00 00 00       	call   13924 <_ZN4re3614InterruptGuardD1Ev>
   138ac:	83 c4 10             	add    $0x10,%esp
   138af:	eb 01                	jmp    138b2 <_ZN4re3616thread_terminateEi+0x69>
   138b1:	90                   	nop
   138b2:	8b 5d fc             	mov    -0x4(%ebp),%ebx
   138b5:	c9                   	leave
   138b6:	c3                   	ret

000138b7 <_ZN4re3612thread_yieldEv>:
   138b7:	55                   	push   %ebp
   138b8:	89 e5                	mov    %esp,%ebp
   138ba:	53                   	push   %ebx
   138bb:	83 ec 04             	sub    $0x4,%esp
   138be:	e8 e4 d7 ff ff       	call   110a7 <__x86.get_pc_thunk.ax>
   138c3:	05 39 b8 01 00       	add    $0x1b839,%eax
   138c8:	89 c3                	mov    %eax,%ebx
   138ca:	e8 45 03 00 00       	call   13c14 <_ZN4re3613TaskScheduler8scheduleEv>
   138cf:	90                   	nop
   138d0:	8b 5d fc             	mov    -0x4(%ebp),%ebx
   138d3:	c9                   	leave
   138d4:	c3                   	ret

000138d5 <_ZN4re368cli_saveEv>:
   138d5:	55                   	push   %ebp
   138d6:	89 e5                	mov    %esp,%ebp
   138d8:	83 ec 10             	sub    $0x10,%esp
   138db:	e8 c7 d7 ff ff       	call   110a7 <__x86.get_pc_thunk.ax>
   138e0:	05 1c b8 01 00       	add    $0x1b81c,%eax
   138e5:	9c                   	pushf
   138e6:	58                   	pop    %eax
   138e7:	fa                   	cli
   138e8:	89 45 fc             	mov    %eax,-0x4(%ebp)
   138eb:	8b 45 fc             	mov    -0x4(%ebp),%eax
   138ee:	c9                   	leave
   138ef:	c3                   	ret

000138f0 <_ZN4re3611sti_restoreEj>:
   138f0:	55                   	push   %ebp
   138f1:	89 e5                	mov    %esp,%ebp
   138f3:	e8 af d7 ff ff       	call   110a7 <__x86.get_pc_thunk.ax>
   138f8:	05 04 b8 01 00       	add    $0x1b804,%eax
   138fd:	8b 45 08             	mov    0x8(%ebp),%eax
   13900:	50                   	push   %eax
   13901:	9d                   	popf
   13902:	90                   	nop
   13903:	5d                   	pop    %ebp
   13904:	c3                   	ret
   13905:	90                   	nop

00013906 <_ZN4re3614InterruptGuardC1Ev>:
   13906:	55                   	push   %ebp
   13907:	89 e5                	mov    %esp,%ebp
   13909:	83 ec 08             	sub    $0x8,%esp
   1390c:	e8 96 d7 ff ff       	call   110a7 <__x86.get_pc_thunk.ax>
   13911:	05 eb b7 01 00       	add    $0x1b7eb,%eax
   13916:	e8 ba ff ff ff       	call   138d5 <_ZN4re368cli_saveEv>
   1391b:	8b 55 08             	mov    0x8(%ebp),%edx
   1391e:	89 02                	mov    %eax,(%edx)
   13920:	90                   	nop
   13921:	c9                   	leave
   13922:	c3                   	ret
   13923:	90                   	nop

00013924 <_ZN4re3614InterruptGuardD1Ev>:
   13924:	55                   	push   %ebp
   13925:	89 e5                	mov    %esp,%ebp
   13927:	83 ec 08             	sub    $0x8,%esp
   1392a:	e8 78 d7 ff ff       	call   110a7 <__x86.get_pc_thunk.ax>
   1392f:	05 cd b7 01 00       	add    $0x1b7cd,%eax
   13934:	8b 45 08             	mov    0x8(%ebp),%eax
   13937:	8b 00                	mov    (%eax),%eax
   13939:	83 ec 0c             	sub    $0xc,%esp
   1393c:	50                   	push   %eax
   1393d:	e8 ae ff ff ff       	call   138f0 <_ZN4re3611sti_restoreEj>
